(dp0
S'BATTLE_LOS_ANGELES_DVS250'
p1
S'annotated'
p2
sS'BIG_MOMMAS_LIKE_FATHER_LIKE_SON_DVS493'
p3
g2
sS'BATTLE_LOS_ANGELES_DVS524'
p4
g2
sS'EASY_A_DVS175'
p5
g2
sS'21_JUMP_STREET_DVS454'
p6
S'annotated'
p7
sS'21_JUMP_STREET_DVS665'
p8
S'annotated'
p9
sS'DINNER_FOR_SCHMUCKS_DVS401'
p10
g2
sS'BATTLE_LOS_ANGELES_DVS76'
p11
g7
sS'A_THOUSAND_WORDS_DVS140'
p12
g7
sS'EASY_A_DVS174'
p13
g2
sS'DEATH_AT_A_FUNERAL_DVS285'
p14
g2
sS'BATTLE_LOS_ANGELES_DVS83'
p15
g7
sS'21_JUMP_STREET_DVS681'
p16
g2
sS'EASY_A_DVS178'
p17
g2
sS'21_JUMP_STREET_DVS418'
p18
g9
sS'21_JUMP_STREET_DVS437'
p19
g9
sS'BURLESQUE_DVS439'
p20
g2
sS'ABRAHAM_LINCOLN_VAMPIRE_HUNTER_DVS462'
p21
g7
sS'FLIGHT_DVS530'
p22
g2
sS'BIG_MOMMAS_LIKE_FATHER_LIKE_SON_DVS554'
p23
g2
sS'BIG_MOMMAS_LIKE_FATHER_LIKE_SON_DVS557'
p24
g2
sS'500DAYSOFSUMMER_DVS102'
p25
g7
sS'BATTLE_LOS_ANGELES_DVS527'
p26
g7
sS'BATTLE_LOS_ANGELES_DVS525'
p27
g7
sS'21_JUMP_STREET_DVS395'
p28
g7
sS'ABRAHAM_LINCOLN_VAMPIRE_HUNTER_DVS68'
p29
g7
sS'30_MINUTES_OR_LESS_DVS100'
p30
g9
sS'500DAYSOFSUMMER_DVS93'
p31
g7
sS'BATTLE_LOS_ANGELES_DVS634'
p32
g7
sS'BIG_MOMMAS_LIKE_FATHER_LIKE_SON_DVS415'
p33
g7
sS'500DAYSOFSUMMER_DVS367'
p34
g7
sS'A_THOUSAND_WORDS_DVS194'
p35
g7
sS'CHASING_MAVERICKS_DVS487'
p36
g2
sS'A_GOOD_DAY_TO_DIE_HARD_DVS304'
p37
g9
sS'30_MINUTES_OR_LESS_DVS323'
p38
g2
sS'FLIGHT_DVS1244'
p39
g2
sS'DEATH_AT_A_FUNERAL_DVS237'
p40
g2
sS'500DAYSOFSUMMER_DVS66'
p41
g2
sS'30_MINUTES_OR_LESS_DVS340'
p42
g7
sS'A_THOUSAND_WORDS_DVS246'
p43
g7
sS'BIG_MOMMAS_LIKE_FATHER_LIKE_SON_DVS368'
p44
g2
sS'FLIGHT_DVS527'
p45
g2
sS'COLOMBIANA_DVS88'
p46
g2
sS'A_GOOD_DAY_TO_DIE_HARD_DVS529'
p47
g9
sS'500DAYSOFSUMMER_DVS380'
p48
g2
sS'BURLESQUE_DVS565'
p49
g2
sS'BATTLE_LOS_ANGELES_DVS596'
p50
g7
sS'CAPTAIN_AMERICA_DVS138'
p51
g2
sS'BIG_MOMMAS_LIKE_FATHER_LIKE_SON_DVS154'
p52
g7
sS'DEAR_JOHN_DVS143'
p53
g2
sS'BIG_MOMMAS_LIKE_FATHER_LIKE_SON_DVS78'
p54
g7
sS'FRIENDS_WITH_BENEFITS_DVS43'
p55
g2
sS'A_THOUSAND_WORDS_DVS438'
p56
g2
sS'BURLESQUE_DVS211'
p57
g2
sS'DEAR_JOHN_DVS338'
p58
g2
sS'40_YEAR_OLD_VIRGIN_DVS111'
p59
g7
sS'DEAR_JOHN_DVS213'
p60
g2
s.