(dp0
S'KARATE_KID_DVS1602'
p1
S'annotated'
p2
sS'DINNER_FOR_SCHMUCKS_DVS429'
p3
g2
sS'KARATE_KID_DVS1607'
p4
g2
sS'DINNER_FOR_SCHMUCKS_DVS350'
p5
g2
sS'KARATE_KID_DVS1609'
p6
S'annotated'
p7
sS'DEATH_AT_A_FUNERAL_DVS228'
p8
S'annotated'
p9
sS'PROMETHEUS_DVS357'
p10
S'annotated'
p11
sS'LITTLE_FOCKERS_DVS243'
p12
g9
sS'THE_VOW_DVS478'
p13
g11
sS'500DAYSOFSUMMER_DVS526'
p14
S'annotated'
p15
sS'SPARKLE_2012_DVS547'
p16
S'annotated'
p17
sS'GREEN_ZONE_DVS309'
p18
g11
sS'THE_SOCIAL_NETWORK_DVS157'
p19
g9
sS'BATTLE_LOS_ANGELES_DVS83'
p20
g9
sS'BRUNO_DVS188'
p21
g2
sS'500DAYSOFSUMMER_DVS46'
p22
g7
sS'THE_GIRL_WITH_THE_DRAGON_TATTOO_DVS851'
p23
g2
sS'DEAR_JOHN_DVS70'
p24
g9
sS'DEAR_JOHN_DVS71'
p25
g17
sS'THE_GIRL_WITH_THE_DRAGON_TATTOO_DVS672'
p26
S'annotated'
p27
sS'INSIDE_MAN_DVS80'
p28
g27
sS'SPARKLE_2012_DVS300'
p29
g9
sS'PUBLIC_ENEMIES_DVS505'
p30
g9
sS'THOR_DVS558'
p31
g11
sS'DEAR_JOHN_DVS274'
p32
g9
sS'THIS_MEANS_WAR_DVS68'
p33
S'annotated'
p34
sS'DINNER_FOR_SCHMUCKS_DVS221'
p35
g11
sS'JUST_GO_WITH_IT_DVS125'
p36
g2
sS'IN_TIME_DVS453'
p37
g2
sS'JUST_GO_WITH_IT_DVS128'
p38
g27
sS'WHATS_YOUR_NUMBER_DVS463'
p39
g34
sS'WHATS_YOUR_NUMBER_DVS99'
p40
S'annotated'
p41
sS'DEAR_JOHN_DVS475'
p42
g11
sS'COLOMBIANA_DVS906'
p43
g27
sS'THE_ART_OF_GETTING_BY_DVS308'
p44
g9
sS'BURLESQUE_DVS536'
p45
S'annotated'
p46
sS'THE_ART_OF_GETTING_BY_DVS303'
p47
g11
sS'THE_ART_OF_GETTING_BY_DVS300'
p48
g2
sS'THE_DESCENDANTS_DVS602'
p49
g2
sS'MORNING_GLORY_DVS337'
p50
S'annotated'
p51
sS'HUGO_DVS301'
p52
g2
sS'THE_GIRL_WITH_THE_DRAGON_TATTOO_DVS694'
p53
g9
sS'THE_GIRL_WITH_THE_DRAGON_TATTOO_DVS695'
p54
g9
sS'THE_CALL_DVS901'
p55
g2
sS'PARENTAL_GUIDANCE_DVS327'
p56
g27
sS'CHASING_MAVERICKS_DVS327'
p57
g27
sS'CHARLIE_ST_CLOUD_DVS40'
p58
g11
sS'CHARLIE_ST_CLOUD_DVS43'
p59
g51
sS'A_GOOD_DAY_TO_DIE_HARD_DVS738'
p60
g7
sS'THOR_DVS644'
p61
S'annotated'
p62
sS'TOOTH_FAIRY_DVS572'
p63
g17
sS'THOR_DVS641'
p64
g62
sS'THE_BIG_YEAR_DVS236'
p65
g2
sS'ITS_COMPLICATED_DVS59'
p66
g11
sS'ITS_COMPLICATED_DVS360'
p67
g17
sS'BAD_TEACHER_DVS287'
p68
g2
sS'SANCTUM_DVS121'
p69
g2
sS'A_GOOD_DAY_TO_DIE_HARD_DVS821'
p70
g11
sS'TITANIC_2_DVS235'
p71
g11
sS'NO_STRINGS_ATTACHED_DVS330'
p72
g11
sS'TITANIC_2_DVS239'
p73
g11
sS'YOUNG_ADULT_DVS367'
p74
g2
sS'YOUNG_ADULT_DVS360'
p75
g11
sS'YOUNG_ADULT_DVS362'
p76
g9
sS'ZOOKEEPER_DVS343'
p77
g9
sS'YOUNG_ADULT_DVS216'
p78
g27
sS'PARENTAL_GUIDANCE_DVS213'
p79
g11
sS'HANSEL_GRETEL_WITCH_HUNTERS_DVS528'
p80
g11
sS'BLINDDATING_DVS20'
p81
g17
sS'BLINDDATING_DVS28'
p82
g17
sS'IN_TIME_DVS256'
p83
g9
sS'EASY_A_DVS90'
p84
g51
sS'THE_VOW_DVS62'
p85
g17
sS'HOW_DO_YOU_KNOW_DVS97'
p86
g62
sS'SANCTUM_DVS237'
p87
g34
sS'TRUE_GRIT_DVS225'
p88
g2
sS'ZOMBIELAND_DVS581'
p89
g62
sS'THE_BOUNTY_HUNTER_DVS539'
p90
g7
sS'GHOST_RIDER_SPIRIT_OF_VENGEANCE_DVS503'
p91
g9
sS'JACK_AND_JILL_DVS84'
p92
g7
sS'GHOST_RIDER_SPIRIT_OF_VENGEANCE_DVS504'
p93
g9
sS'THE_BIG_YEAR_DVS72'
p94
g11
sS'A_GOOD_DAY_TO_DIE_HARD_DVS917'
p95
g34
sS'CHARLIE_ST_CLOUD_DVS151'
p96
g27
sS'CINDERELLA_MAN_DVS61'
p97
g11
sS'CINDERELLA_MAN_DVS67'
p98
g51
sS'CHARLIE_ST_CLOUD_DVS159'
p99
g9
sS'SNOW_FLOWER_FD_DVS377'
p100
g9
sS'BAD_TEACHER_DVS133'
p101
g51
sS'SNOW_FLOWER_FD_DVS373'
p102
g2
sS'A_THOUSAND_WORDS_DVS146'
p103
g15
sS'A_THOUSAND_WORDS_DVS147'
p104
g11
sS'A_THOUSAND_WORDS_DVS144'
p105
g15
sS'A_THOUSAND_WORDS_DVS145'
p106
g2
sS'A_THOUSAND_WORDS_DVS140'
p107
g9
sS'ABRAHAM_LINCOLN_VAMPIRE_HUNTER_DVS635'
p108
g11
sS'ABRAHAM_LINCOLN_VAMPIRE_HUNTER_DVS632'
p109
g62
sS'WHATS_YOUR_NUMBER_DVS239'
p110
g27
sS'THE_ROOMMATE_DVS126'
p111
g11
sS'GHOST_RIDER_SPIRIT_OF_VENGEANCE_DVS186'
p112
g62
sS'GHOST_RIDER_SPIRIT_OF_VENGEANCE_DVS185'
p113
g11
sS'GHOST_RIDER_SPIRIT_OF_VENGEANCE_DVS182'
p114
g11
sS'TITANIC_1_DVS98'
p115
g9
sS'THOR_DVS517'
p116
g62
sS'SUPER_8_DVS510'
p117
g11
sS'SUPER_8_DVS511'
p118
g11
sS'SUPER_8_DVS513'
p119
g11
sS'XMEN_FIRST_CLASS_DVS1302'
p120
g11
sS'A_THOUSAND_WORDS_DVS325'
p121
g27
sS'BIG_MOMMAS_LIKE_FATHER_LIKE_SON_DVS368'
p122
g41
sS'THE_SITTER_DVS119'
p123
g9
sS'KARATE_KID_DVS946'
p124
g11
sS'BIG_MOMMAS_LIKE_FATHER_LIKE_SON_DVS568'
p125
g7
sS'BIG_MOMMAS_LIKE_FATHER_LIKE_SON_DVS565'
p126
g27
sS'KARATE_KID_DVS789'
p127
g27
sS'KARATE_KID_DVS788'
p128
g7
sS'THE_DESCENDANTS_DVS797'
p129
g9
sS'RUBY_SPARKS_DVS427'
p130
g27
sS'KARATE_KID_DVS548'
p131
g17
sS'A_THOUSAND_WORDS_DVS218'
p132
g17
sS'COLOMBIANA_DVS645'
p133
g9
sS'GET_HIM_TO_THE_GREEK_DVS129'
p134
g17
sS'RUBY_SPARKS_DVS192'
p135
g11
sS'HUGO_DVS58'
p136
g11
sS'HUGO_DVS59'
p137
g62
sS'HUGO_DVS57'
p138
g11
sS'JUST_GO_WITH_IT_DVS30'
p139
g41
sS'HUGO_DVS55'
p140
g11
sS'PUBLIC_ENEMIES_DVS198'
p141
g27
sS'TITANIC_1_DVS397'
p142
g2
sS'THE_ADVENTURES_OF_TINTIN_DVS417'
p143
g11
sS'DEAR_JOHN_DVS118'
p144
g34
sS'BIG_MOMMAS_LIKE_FATHER_LIKE_SON_DVS100'
p145
g27
sS'BIG_MOMMAS_LIKE_FATHER_LIKE_SON_DVS104'
p146
g51
sS'BIG_MOMMAS_LIKE_FATHER_LIKE_SON_DVS587'
p147
g11
sS'THE_ADVENTURES_OF_TINTIN_DVS675'
p148
g2
sS'MORNING_GLORY_DVS107'
p149
g9
sS'COLOMBIANA_DVS737'
p150
g51
sS'THE_GIRL_WITH_THE_DRAGON_TATTOO_DVS1421'
p151
g9
sS'CHASING_MAVERICKS_DVS752'
p152
g11
sS'HOW_DO_YOU_KNOW_DVS390'
p153
g11
sS'NANNY_MCPHEE_RETURNS_DVS339'
p154
g17
sS'TITANIC_1_DVS172'
p155
g9
sS'TITANIC_1_DVS173'
p156
g11
sS'NANNY_MCPHEE_RETURNS_DVS337'
p157
g11
sS'UGLY_TRUTH_DVS495'
p158
g7
sS'UGLY_TRUTH_DVS492'
p159
g41
sS'A_THOUSAND_WORDS_DVS453'
p160
g17
sS'40_YEAR_OLD_VIRGIN_DVS111'
p161
g9
sS'JULIE_AND_JULIA_DVS564'
p162
g41
sS'LAND_OF_THE_LOST_DVS148'
p163
g7
sS'SPARKLE_2012_DVS56'
p164
g9
sS'THE_GIRL_WITH_THE_DRAGON_TATTOO_DVS662'
p165
g11
sS'500DAYSOFSUMMER_DVS177'
p166
g15
sS'PUBLIC_ENEMIES_DVS539'
p167
g9
sS'LITTLE_FOCKERS_DVS224'
p168
g41
sS'DEAR_JOHN_DVS246'
p169
g11
sS'30_MINUTES_OR_LESS_DVS313'
p170
g11
sS'GREEN_ZONE_DVS207'
p171
g9
sS'MORNING_GLORY_DVS81'
p172
g51
sS'MORNING_GLORY_DVS85'
p173
g11
sS'TOOTH_FAIRY_DVS123'
p174
g2
sS'TITANIC_2_DVS481'
p175
g7
sS'THE_GIRL_WITH_THE_DRAGON_TATTOO_DVS64'
p176
g11
sS'IN_TIME_DVS448'
p177
g2
sS'MR_POPPERS_PENGUINS_DVS140'
p178
g27
sS'THE_ART_OF_GETTING_BY_DVS201'
p179
g2
sS'THE_CALL_DVS573'
p180
g2
sS'CINDERELLA_MAN_DVS419'
p181
g17
sS'THINK_LIKE_A_MAN_DVS392'
p182
g41
sS'TOOTH_FAIRY_DVS185'
p183
g9
sS'THE_DESCENDANTS_DVS348'
p184
g7
sS'IN_TIME_DVS201'
p185
g9
sS'THINK_LIKE_A_MAN_DVS408'
p186
g2
sS'HUGO_DVS460'
p187
g9
sS'HUGO_DVS467'
p188
g17
sS'TITANIC_2_DVS139'
p189
g11
sS'MR_POPPERS_PENGUINS_DVS493'
p190
g2
sS'FRIENDS_WITH_BENEFITS_DVS249'
p191
g2
sS'THE_ART_OF_GETTING_BY_DVS115'
p192
g9
sS'THE_ART_OF_GETTING_BY_DVS112'
p193
g27
sS'A_GOOD_DAY_TO_DIE_HARD_DVS54'
p194
g15
sS'THE_CALL_DVS484'
p195
g9
sS'THE_BOUNTY_HUNTER_DVS189'
p196
g27
sS'ABRAHAM_LINCOLN_VAMPIRE_HUNTER_DVS68'
p197
g9
sS'ITS_COMPLICATED_DVS399'
p198
g27
sS'THE_VOW_DVS52'
p199
g9
sS'FLIGHT_DVS139'
p200
g2
sS'TRUE_GRIT_DVS141'
p201
g34
sS'THIS_MEANS_WAR_DVS183'
p202
g9
sS'IDES_OF_MARCH_DVS34'
p203
g7
sS'THE_BOUNTY_HUNTER_DVS253'
p204
g27
sS'COLOMBIANA_DVS497'
p205
g11
sS'THOR_DVS189'
p206
g62
sS'BATTLE_LOS_ANGELES_DVS250'
p207
g41
sS'A_THOUSAND_WORDS_DVS225'
p208
g17
sS'COLOMBIANA_DVS134'
p209
g17
sS'SANCTUM_DVS223'
p210
g2
sS'BURLESQUE_DVS383'
p211
g27
sS'TRUE_GRIT_DVS496'
p212
g9
sS'CHASING_MAVERICKS_DVS117'
p213
g11
sS'LIFE_OF_PI_DVS987'
p214
g34
sS'ZOMBIELAND_DVS224'
p215
g27
sS'GHOST_RIDER_SPIRIT_OF_VENGEANCE_DVS516'
p216
g11
sS'SNOW_FLOWER_FD_DVS964'
p217
g11
sS'CHARLIE_ST_CLOUD_DVS140'
p218
g11
sS'JUST_GO_WITH_IT_DVS258'
p219
g27
sS'ITS_COMPLICATED_DVS163'
p220
g17
sS'THINK_LIKE_A_MAN_DVS384'
p221
g2
sS'KARATE_KID_DVS319'
p222
g9
sS'CHASING_MAVERICKS_DVS200'
p223
S'annotated'
p224
sS'CAPTAIN_AMERICA_DVS584'
p225
g224
sS'TRUE_GRIT_DVS560'
p226
g2
sS'ABRAHAM_LINCOLN_VAMPIRE_HUNTER_DVS608'
p227
S'annotated'
p228
sS'LIFE_OF_PI_DVS676'
p229
g34
sS'A_THOUSAND_WORDS_DVS138'
p230
g2
sS'ABRAHAM_LINCOLN_VAMPIRE_HUNTER_DVS604'
p231
g2
sS'ABRAHAM_LINCOLN_VAMPIRE_HUNTER_DVS287'
p232
g2
sS'ABRAHAM_LINCOLN_VAMPIRE_HUNTER_DVS286'
p233
g11
sS'CAPTAIN_AMERICA_DVS113'
p234
g2
sS'THE_ROOMMATE_DVS158'
p235
g11
sS'GHOST_RIDER_SPIRIT_OF_VENGEANCE_DVS191'
p236
g27
sS'40_YEAR_OLD_VIRGIN_DVS222'
p237
g2
sS'KATY_PERRY_PART_OF_ME_DVS139'
p238
g11
sS'THOR_DVS526'
p239
g62
sS'THOR_DVS523'
p240
g11
sS'COLOMBIANA_DVS221'
p241
g9
sS'LIFE_OF_PI_DVS270'
p242
g2
sS'TITANIC_2_DVS660'
p243
g7
sS'SUPER_8_DVS507'
p244
g11
sS'SUPER_8_DVS505'
p245
g51
sS'SUPER_8_DVS509'
p246
g51
sS'XMEN_FIRST_CLASS_DVS1316'
p247
g9
sS'ABRAHAM_LINCOLN_VAMPIRE_HUNTER_DVS516'
p248
g11
sS'XMEN_FIRST_CLASS_DVS926'
p249
g17
sS'ABRAHAM_LINCOLN_VAMPIRE_HUNTER_DVS462'
p250
g9
sS'KARATE_KID_DVS820'
p251
g9
sS'WE_BOUGHT_A_ZOO_DVS803'
p252
g17
sS'BIG_MOMMAS_LIKE_FATHER_LIKE_SON_DVS572'
p253
g9
sS'BIG_MOMMAS_LIKE_FATHER_LIKE_SON_DVS576'
p254
g11
sS'WE_BOUGHT_A_ZOO_DVS772'
p255
g11
sS'THE_WATCH_DVS373'
p256
g9
sS'KARATE_KID_DVS552'
p257
S'annotated'
p258
sS'WE_BOUGHT_A_ZOO_DVS571'
p259
g9
sS'30_MINUTES_OR_LESS_DVS323'
p260
g41
sS'WE_BOUGHT_A_ZOO_DVS157'
p261
g7
sS'A_THOUSAND_WORDS_DVS264'
p262
g2
sS'THE_WATCH_DVS559'
p263
g51
sS'THE_BOUNTY_HUNTER_DVS57'
p264
g9
sS'UGLY_TRUTH_DVS554'
p265
g2
sS'WE_BOUGHT_A_ZOO_DVS596'
p266
g9
sS'LITTLE_FOCKERS_DVS41'
p267
g27
sS'SALT_DVS117'
p268
g9
sS'UGLY_TRUTH_DVS551'
p269
g41
sS'GET_HIM_TO_THE_GREEK_DVS111'
p270
g7
sS'NANNY_MCPHEE_RETURNS_DVS185'
p271
g11
sS'BLINDDATING_DVS148'
p272
g9
sS'TITANIC_1_DVS387'
p273
g34
sS'UGLY_TRUTH_DVS313'
p274
g7
sS'TITANIC_1_DVS381'
p275
g11
sS'TITANIC_1_DVS382'
p276
g62
sS'KATY_PERRY_PART_OF_ME_DVS245'
p277
g62
sS'THIS_MEANS_WAR_DVS232'
p278
g11
sS'BIG_MOMMAS_LIKE_FATHER_LIKE_SON_DVS119'
p279
g51
sS'500DAYSOFSUMMER_DVS349'
p280
g7
sS'THE_GIRL_WITH_THE_DRAGON_TATTOO_DVS699'
p281
g2
sS'THE_WATCH_DVS159'
p282
g11
sS'BATTLE_LOS_ANGELES_DVS409'
p283
g11
sS'GREEN_ZONE_DVS364'
p284
g11
sS'BIG_MOMMAS_LIKE_FATHER_LIKE_SON_DVS596'
p285
g2
sS'KARATE_KID_DVS1370'
p286
g7
sS'KARATE_KID_DVS1372'
p287
g7
sS'MORNING_GLORY_DVS132'
p288
g17
sS'DINNER_FOR_SCHMUCKS_DVS401'
p289
g41
sS'HOW_DO_YOU_KNOW_DVS540'
p290
g9
sS'HOW_DO_YOU_KNOW_DVS388'
p291
g9
sS'TITANIC_1_DVS504'
p292
g2
sS'PROMETHEUS_DVS971'
p293
g11
sS'WHATS_YOUR_NUMBER_DVS716'
p294
g11
sS'TITANIC_1_DVS165'
p295
g2
sS'SPARKLE_2012_DVS566'
p296
g41
sS'BIG_MOMMAS_LIKE_FATHER_LIKE_SON_DVS603'
p297
g11
sS'BIG_MOMMAS_LIKE_FATHER_LIKE_SON_DVS609'
p298
g11
sS'LAND_OF_THE_LOST_DVS171'
p299
g7
sS'500DAYSOFSUMMER_DVS66'
p300
g41
sS'500DAYSOFSUMMER_DVS65'
p301
g15
sS'THE_GIRL_WITH_THE_DRAGON_TATTOO_DVS836'
p302
g9
sS'SPARKLE_2012_DVS364'
p303
g27
sS'KARATE_KID_DVS1091'
p304
g9
sS'SNOW_FLOWER_FD_DVS1202'
p305
g7
sS'TOOTH_FAIRY_DVS673'
p306
g2
sS'IN_TIME_DVS523'
p307
g11
sS'DEATH_AT_A_FUNERAL_DVS253'
p308
g9
sS'THE_ADVENTURES_OF_TINTIN_DVS283'
p309
g11
sS'THE_VOW_DVS129'
p310
g27
sS'TITANIC_2_DVS124'
p311
g11
sS'THE_CALL_DVS886'
p312
g9
sS'CINDERELLA_MAN_DVS131'
p313
g27
sS'SALT_DVS482'
p314
g17
sS'TOOTH_FAIRY_DVS178'
p315
g9
sS'MORNING_GLORY_DVS482'
p316
g9
sS'DEAR_JOHN_DVS476'
p317
S'annotated'
p318
sS'THE_GIRL_WITH_THE_DRAGON_TATTOO_DVS306'
p319
g9
sS'SPARKLE_2012_DVS180'
p320
g9
sS'COLOMBIANA_DVS967'
p321
g318
sS'CINDERELLA_MAN_DVS221'
p322
g11
sS'FLIGHT_DVS909'
p323
g258
sS'KARATE_KID_DVS1407'
p324
g62
sS'THINK_LIKE_A_MAN_DVS166'
p325
g9
sS'LITTLE_FOCKERS_DVS155'
p326
g9
sS'HUGO_DVS457'
p327
g7
sS'THOR_DVS664'
p328
g11
sS'HANSEL_GRETEL_WITCH_HUNTERS_DVS321'
p329
g27
sS'THE_ART_OF_GETTING_BY_DVS103'
p330
g9
sS'A_GOOD_DAY_TO_DIE_HARD_DVS203'
p331
g2
sS'THE_ART_OF_GETTING_BY_DVS105'
p332
g7
sS'HANSEL_GRETEL_WITCH_HUNTERS_DVS326'
p333
g27
sS'HANSEL_GRETEL_WITCH_HUNTERS_DVS437'
p334
g2
sS'THE_ART_OF_GETTING_BY_DVS213'
p335
g9
sS'JUST_GO_WITH_IT_DVS318'
p336
g62
sS'PUBLIC_ENEMIES_DVS78'
p337
g2
sS'DISTRICT_9_DVS793'
p338
g11
sS'ITS_COMPLICATED_DVS380'
p339
g9
sS'TITANIC_2_DVS212'
p340
g9
sS'TITANIC_2_DVS210'
p341
g11
sS'TITANIC_2_DVS211'
p342
g11
sS'FRIENDS_WITH_BENEFITS_DVS344'
p343
g41
sS'FRIENDS_WITH_BENEFITS_DVS346'
p344
g2
sS'HANSEL_GRETEL_WITCH_HUNTERS_DVS502'
p345
g11
sS'TITANIC_2_DVS454'
p346
g2
sS'IDES_OF_MARCH_DVS25'
p347
g7
sS'IDES_OF_MARCH_DVS21'
p348
g7
sS'THINK_LIKE_A_MAN_DVS218'
p349
g27
sS'CAPTAIN_AMERICA_DVS233'
p350
g11
sS'CAPTAIN_AMERICA_DVS230'
p351
g51
sS'CAPTAIN_AMERICA_DVS236'
p352
g11
sS'A_GOOD_DAY_TO_DIE_HARD_DVS688'
p353
g2
sS'SOUL_SURFER_DVS256'
p354
g9
sS'BATTLE_LOS_ANGELES_DVS244'
p355
g27
sS'COLOMBIANA_DVS104'
p356
g258
sS'CHASING_MAVERICKS_DVS164'
p357
g2
sS'YOUNG_ADULT_DVS411'
p358
g2
sS'THE_BOUNTY_HUNTER_DVS558'
p359
g258
sS'CAPTAIN_AMERICA_DVS343'
p360
g11
sS'THOR_DVS441'
p361
g51
sS'CHARLIE_ST_CLOUD_DVS176'
p362
g9
sS'JUST_GO_WITH_IT_DVS260'
p363
g27
sS'JUST_GO_WITH_IT_DVS266'
p364
g2
sS'THE_ADVENTURES_OF_TINTIN_DVS577'
p365
g11
sS'ITS_COMPLICATED_DVS154'
p366
g27
sS'PERCY_JACKSON_LIGHTENING_THIEF_DVS266'
p367
g11
sS'GHOST_RIDER_SPIRIT_OF_VENGEANCE_DVS525'
p368
g11
sS'GHOST_RIDER_SPIRIT_OF_VENGEANCE_DVS527'
p369
g11
sS'CAPTAIN_AMERICA_DVS560'
p370
g11
sS'LIFE_OF_PI_DVS888'
p371
g9
sS'GHOST_RIDER_SPIRIT_OF_VENGEANCE_DVS528'
p372
g11
sS'30_MINUTES_OR_LESS_DVS208'
p373
g228
sS'THE_ROOMMATE_DVS142'
p374
g2
sS'PUBLIC_ENEMIES_DVS96'
p375
g11
sS'XMEN_FIRST_CLASS_DVS1084'
p376
g9
sS'JACK_AND_JILL_DVS155'
p377
g11
sS'KATY_PERRY_PART_OF_ME_DVS156'
p378
g11
sS'GREEN_ZONE_DVS180'
p379
g17
sS'KATY_PERRY_PART_OF_ME_DVS55'
p380
g7
sS'SOUL_SURFER_DVS253'
p381
g27
sS'KARATE_KID_DVS969'
p382
g11
sS'BIG_MOMMAS_LIKE_FATHER_LIKE_SON_DVS554'
p383
g41
sS'KARATE_KID_DVS965'
p384
g9
sS'KARATE_KID_DVS964'
p385
g2
sS'FLIGHT_DVS488'
p386
g2
sS'KARATE_KID_DVS769'
p387
g11
sS'XMEN_FIRST_CLASS_DVS952'
p388
g9
sS'IN_TIME_DVS950'
p389
g9
sS'THE_WATCH_DVS302'
p390
g62
sS'IRON_MAN_2_DVS593'
p391
g11
sS'BIG_MOMMAS_LIKE_FATHER_LIKE_SON_DVS294'
p392
g2
sS'IRON_MAN_2_DVS594'
p393
g11
sS'30_MINUTES_OR_LESS_DVS337'
p394
g11
sS'EASY_A_DVS133'
p395
g27
sS'SORCERERS_APPRENTICE_DVS144'
p396
g17
sS'TITANIC_2_DVS237'
p397
g11
sS'SUPER_8_DVS405'
p398
g11
sS'THE_ADVENTURES_OF_TINTIN_DVS273'
p399
g2
sS'ZOMBIELAND_DVS49'
p400
g11
sS'TITANIC_1_DVS286'
p401
g2
sS'THE_WATCH_DVS520'
p402
g11
sS'HOW_DO_YOU_KNOW_DVS151'
p403
g11
sS'HOW_DO_YOU_KNOW_DVS710'
p404
g17
sS'UGLY_TRUTH_DVS363'
p405
g41
sS'THE_WATCH_DVS410'
p406
g27
sS'THE_ADVENTURES_OF_TINTIN_DVS473'
p407
g62
sS'TITANIC_1_DVS374'
p408
g11
sS'WE_BOUGHT_A_ZOO_DVS124'
p409
g9
sS'RUBY_SPARKS_DVS574'
p410
g51
sS'THE_SOCIAL_NETWORK_DVS86'
p411
g41
sS'CHASING_MAVERICKS_DVS412'
p412
g2
sS'500DAYSOFSUMMER_DVS375'
p413
g15
sS'WE_BOUGHT_A_ZOO_DVS467'
p414
g9
sS'TITANIC_1_DVS305'
p415
g11
sS'THE_BOUNTY_HUNTER_DVS345'
p416
g62
sS'BURLESQUE_DVS213'
p417
g62
sS'RUBY_SPARKS_DVS378'
p418
g11
sS'TITANIC_1_DVS115'
p419
g11
sS'TITANIC_1_DVS116'
p420
g11
sS'TITANIC_1_DVS117'
p421
g11
sS'TITANIC_1_DVS112'
p422
g2
sS'THE_SOCIAL_NETWORK_DVS163'
p423
g9
sS'HOW_DO_YOU_KNOW_DVS442'
p424
g17
sS'DEAR_JOHN_DVS28'
p425
g34
sS'LAND_OF_THE_LOST_DVS160'
p426
g27
sS'SPARKLE_2012_DVS228'
p427
g11
sS'THE_GIRL_WITH_THE_DRAGON_TATTOO_DVS822'
p428
g27
sS'500DAYSOFSUMMER_DVS150'
p429
g15
sS'DEAR_JOHN_DVS719'
p430
g9
sS'THE_BIG_YEAR_DVS587'
p431
g11
sS'SUPER_8_DVS229'
p432
g11
sS'BURLESQUE_DVS610'
p433
g11
sS'CAPTAIN_AMERICA_DVS314'
p434
g11
sS'INSIDE_MAN_DVS32'
p435
g11
sS'A_THOUSAND_WORDS_DVS273'
p436
g17
sS'THE_GIRL_WITH_THE_DRAGON_TATTOO_DVS220'
p437
g51
sS'YOUNG_ADULT_DVS90'
p438
g11
sS'TOOTH_FAIRY_DVS169'
p439
g2
sS'SUPER_8_DVS565'
p440
g11
sS'SALT_DVS107'
p441
g9
sS'MORNING_GLORY_DVS499'
p442
g11
sS'COLOMBIANA_DVS977'
p443
g2
sS'TITANIC_2_DVS739'
p444
g11
sS'ITS_COMPLICATED_DVS374'
p445
g41
sS'THE_VOW_DVS201'
p446
g11
sS'TITANIC_2_DVS732'
p447
g2
sS'HUGO_DVS441'
p448
g11
sS'A_GOOD_DAY_TO_DIE_HARD_DVS560'
p449
g11
sS'IN_TIME_DVS556'
p450
g11
sS'THE_SITTER_DVS83'
p451
g11
sS'THE_SITTER_DVS84'
p452
g11
sS'THE_DESCENDANTS_DVS148'
p453
g34
sS'THINK_LIKE_A_MAN_DVS518'
p454
g9
sS'TITANIC_1_DVS280'
p455
g11
sS'TOOTH_FAIRY_DVS306'
p456
g11
sS'THE_ART_OF_GETTING_BY_DVS265'
p457
g11
sS'THE_BOUNTY_HUNTER_DVS432'
p458
g9
sS'PERCY_JACKSON_LIGHTENING_THIEF_DVS409'
p459
g2
sS'A_GOOD_DAY_TO_DIE_HARD_DVS304'
p460
g51
sS'ZOMBIELAND_DVS685'
p461
g62
sS'UGLY_TRUTH_DVS367'
p462
g17
sS'HANSEL_GRETEL_WITCH_HUNTERS_DVS422'
p463
g27
sS'MR_POPPERS_PENGUINS_DVS580'
p464
g17
sS'HANSEL_GRETEL_WITCH_HUNTERS_DVS426'
p465
g27
sS'TITANIC_2_DVS200'
p466
g9
sS'TOOTH_FAIRY_DVS436'
p467
g7
sS'TITANIC_2_DVS207'
p468
g11
sS'GREEN_ZONE_DVS34'
p469
g27
sS'THE_ADVENTURES_OF_TINTIN_DVS61'
p470
g2
sS'BURLESQUE_DVS395'
p471
g2
sS'CINDERELLA_MAN_DVS193'
p472
g17
sS'MR_POPPERS_PENGUINS_DVS344'
p473
g51
sS'CAPTAIN_AMERICA_DVS223'
p474
g11
sS'CAPTAIN_AMERICA_DVS226'
p475
g11
sS'DISTRICT_9_DVS546'
p476
g9
sS'WHATS_YOUR_NUMBER_DVS606'
p477
g11
sS'PERCY_JACKSON_LIGHTENING_THIEF_DVS313'
p478
g11
sS'PERCY_JACKSON_LIGHTENING_THIEF_DVS312'
p479
g11
sS'ROBIN_HOOD_DVS134'
p480
g11
sS'LIFE_OF_PI_DVS509'
p481
g2
sS'CAPTAIN_AMERICA_DVS355'
p482
g11
sS'LIFE_OF_PI_DVS506'
p483
g2
sS'MR_POPPERS_PENGUINS_DVS192'
p484
g11
sS'CAPTAIN_AMERICA_DVS352'
p485
g11
sS'A_GOOD_DAY_TO_DIE_HARD_DVS789'
p486
g11
sS'CHARLIE_ST_CLOUD_DVS168'
p487
g9
sS'CHARLIE_ST_CLOUD_DVS169'
p488
g51
sS'CHARLIE_ST_CLOUD_DVS162'
p489
g11
sS'CHARLIE_ST_CLOUD_DVS163'
p490
g51
sS'ABRAHAM_LINCOLN_VAMPIRE_HUNTER_DVS665'
p491
g11
sS'PERCY_JACKSON_LIGHTENING_THIEF_DVS272'
p492
g2
sS'COLOMBIANA_DVS209'
p493
g9
sS'ITS_COMPLICATED_DVS145'
p494
g7
sS'JACK_AND_JILL_DVS30'
p495
g7
sS'SANCTUM_DVS373'
p496
g9
sS'MR_POPPERS_PENGUINS_DVS612'
p497
g9
sS'LIFE_OF_PI_DVS472'
p498
g2
sS'ZOMBIELAND_DVS666'
p499
g51
sS'DISTRICT_9_DVS769'
p500
g11
sS'CAPTAIN_AMERICA_DVS174'
p501
g9
sS'THOR_DVS542'
p502
g11
sS'NO_STRINGS_ATTACHED_DVS388'
p503
g11
sS'KATY_PERRY_PART_OF_ME_DVS48'
p504
g7
sS'THE_ROOMMATE_DVS197'
p505
g11
sS'NO_STRINGS_ATTACHED_DVS122'
p506
g41
sS'TOOTH_FAIRY_DVS892'
p507
g17
sS'WHATS_YOUR_NUMBER_DVS575'
p508
g11
sS'THE_WATCH_DVS52'
p509
g11
sS'XMEN_FIRST_CLASS_DVS765'
p510
g27
sS'IDES_OF_MARCH_DVS191'
p511
g27
sS'WHATS_YOUR_NUMBER_DVS485'
p512
g17
sS'ABRAHAM_LINCOLN_VAMPIRE_HUNTER_DVS404'
p513
g11
sS'CINDERELLA_MAN_DVS69'
p514
g11
sS'FLIGHT_DVS1244'
p515
g41
sS'THE_WATCH_DVS319'
p516
g11
sS'CHRONICLE_DVS107'
p517
g11
sS'500DAYSOFSUMMER_DVS367'
p518
g9
sS'THE_DESCENDANTS_DVS39'
p519
g17
sS'SUPER_8_DVS412'
p520
g11
sS'THE_DESCENDANTS_DVS35'
p521
g17
sS'HUGO_DVS67'
p522
g2
sS'HUGO_DVS66'
p523
g2
sS'HUGO_DVS64'
p524
g11
sS'A_THOUSAND_WORDS_DVS240'
p525
g11
sS'HUGO_DVS61'
p526
g11
sS'RUBY_SPARKS_DVS142'
p527
g11
sS'TITANIC_1_DVS290'
p528
g11
sS'KARATE_KID_DVS971'
p529
g27
sS'CHARLIE_ST_CLOUD_DVS289'
p530
g11
sS'XMEN_FIRST_CLASS_DVS1067'
p531
g2
sS'WE_BOUGHT_A_ZOO_DVS138'
p532
g9
sS'COLOMBIANA_DVS763'
p533
g11
sS'BATTLE_LOS_ANGELES_DVS467'
p534
g17
sS'KARATE_KID_DVS1314'
p535
g11
sS'GREEN_ZONE_DVS347'
p536
g9
sS'SUPER_8_DVS306'
p537
g11
sS'WE_BOUGHT_A_ZOO_DVS626'
p538
g11
sS'THIS_MEANS_WAR_DVS458'
p539
g62
sS'PROMETHEUS_DVS365'
p540
g11
sS'SPARKLE_2012_DVS504'
p541
g9
sS'SPARKLE_2012_DVS507'
p542
g11
sS'THE_SOCIAL_NETWORK_DVS112'
p543
g11
sS'XMEN_FIRST_CLASS_DVS1111'
p544
g7
sS'ITS_COMPLICATED_DVS7'
p545
g41
sS'KARATE_KID_DVS1081'
p546
g11
sS'UGLY_TRUTH_DVS603'
p547
g9
sS'GREEN_ZONE_DVS236'
p548
g9
sS'IRON_MAN_2_DVS43'
p549
g11
sS'THIS_MEANS_WAR_DVS26'
p550
g62
sS'THIS_MEANS_WAR_DVS22'
p551
g11
sS'BATTLE_LOS_ANGELES_DVS43'
p552
g27
sS'CHASING_MAVERICKS_DVS214'
p553
g62
sS'THE_VOW_DVS696'
p554
g9
sS'DEAR_JOHN_DVS631'
p555
g9
sS'PROMETHEUS_DVS97'
p556
g7
sS'UGLY_TRUTH_DVS477'
p557
g51
sS'21_JUMP_STREET_DVS42'
p558
g11
sS'500DAYSOFSUMMER_DVS143'
p559
g15
sS'HUGO_DVS89'
p560
g17
sS'DEATH_AT_A_FUNERAL_DVS275'
p561
g2
sS'UGLY_TRUTH_DVS594'
p562
g9
sS'CINDERELLA_MAN_DVS335'
p563
g11
sS'SNOW_FLOWER_FD_DVS1053'
p564
g2
sS'LITTLE_FOCKERS_DVS137'
p565
g27
sS'SPARKLE_2012_DVS232'
p566
g11
sS'THINK_LIKE_A_MAN_DVS348'
p567
g41
sS'SUPER_8_DVS125'
p568
g11
sS'MORNING_GLORY_DVS465'
p569
g11
sS'SPARKLE_2012_DVS239'
p570
g7
sS'TOOTH_FAIRY_DVS150'
p571
g9
sS'BURLESQUE_DVS571'
p572
g27
sS'KARATE_KID_DVS1424'
p573
g62
sS'THE_DESCENDANTS_DVS313'
p574
g9
sS'KARATE_KID_DVS1427'
p575
g51
sS'THE_BOUNTY_HUNTER_DVS398'
p576
g17
sS'HUGO_DVS128'
p577
g11
sS'HUGO_DVS438'
p578
g2
sS'MORNING_GLORY_DVS208'
p579
g11
sS'BRUNO_DVS127'
p580
g11
sS'MR_POPPERS_PENGUINS_DVS171'
p581
g11
sS'A_GOOD_DAY_TO_DIE_HARD_DVS171'
p582
g7
sS'TITANIC_2_DVS144'
p583
g7
sS'THE_SOCIAL_NETWORK_DVS299'
p584
g11
sS'TOOTH_FAIRY_DVS330'
p585
g9
sS'HUGO_DVS722'
p586
g11
sS'HUGO_DVS721'
p587
g11
sS'HUGO_DVS726'
p588
g11
sS'HUGO_DVS729'
p589
g11
sS'THE_VOW_DVS85'
p590
g7
sS'BLINDDATING_DVS69'
p591
S'annotated'
p592
sS'PARENTAL_GUIDANCE_DVS252'
p593
g17
sS'THE_CALL_DVS199'
p594
g17
sS'PUBLIC_ENEMIES_DVS50'
p595
g11
sS'PUBLIC_ENEMIES_DVS53'
p596
g11
sS'PUBLIC_ENEMIES_DVS52'
p597
g11
sS'DEAR_JOHN_DVS213'
p598
g41
sS'21_JUMP_STREET_DVS395'
p599
g9
sS'LAND_OF_THE_LOST_DVS242'
p600
g11
sS'LAND_OF_THE_LOST_DVS246'
p601
g51
sS'A_THOUSAND_WORDS_DVS236'
p602
g11
sS'CAPTAIN_AMERICA_DVS218'
p603
g51
sS'FRIENDS_WITH_BENEFITS_DVS276'
p604
g34
sS'WHATS_YOUR_NUMBER_DVS77'
p605
g9
sS'CAPTAIN_AMERICA_DVS217'
p606
g11
sS'CAPTAIN_AMERICA_DVS211'
p607
g11
sS'21_JUMP_STREET_DVS448'
p608
g11
sS'JUST_GO_WITH_IT_DVS208'
p609
g51
sS'ITS_COMPLICATED_DVS36'
p610
g9
sS'CINDERELLA_MAN_DVS20'
p611
g11
sS'GHOST_RIDER_SPIRIT_OF_VENGEANCE_DVS322'
p612
g17
sS'GHOST_RIDER_SPIRIT_OF_VENGEANCE_DVS320'
p613
g51
sS'COLOMBIANA_DVS166'
p614
g62
sS'COLOMBIANA_DVS160'
p615
g11
sS'21_JUMP_STREET_DVS287'
p616
g15
sS'ZOMBIELAND_DVS274'
p617
g51
sS'THE_BOUNTY_HUNTER_DVS578'
p618
g7
sS'ROBIN_HOOD_DVS214'
p619
g11
sS'21_JUMP_STREET_DVS665'
p620
g51
sS'GREEN_ZONE_DVS437'
p621
g11
sS'CAPTAIN_AMERICA_DVS540'
p622
g11
sS'CAPTAIN_AMERICA_DVS542'
p623
g258
sS'CAPTAIN_AMERICA_DVS545'
p624
g11
sS'ZOMBIELAND_DVS650'
p625
g11
sS'GHOST_RIDER_SPIRIT_OF_VENGEANCE_DVS252'
p626
g2
sS'ABRAHAM_LINCOLN_VAMPIRE_HUNTER_DVS277'
p627
g11
sS'JACK_AND_JILL_DVS402'
p628
g2
sS'DISTRICT_9_DVS207'
p629
g7
sS'FRIENDS_WITH_BENEFITS_DVS384'
p630
g258
sS'EASY_A_DVS51'
p631
g27
sS'BATTLE_LOS_ANGELES_DVS682'
p632
g51
sS'JULIE_AND_JULIA_DVS88'
p633
g27
sS'WHATS_YOUR_NUMBER_DVS743'
p634
g11
sS'WHATS_YOUR_NUMBER_DVS740'
p635
g7
sS'LIFE_OF_PI_DVS222'
p636
g9
sS'THE_ROOMMATE_DVS347'
p637
g9
sS'TITANIC_1_DVS37'
p638
g11
sS'SANCTUM_DVS417'
p639
g17
sS'SANCTUM_DVS410'
p640
g34
sS'SORCERERS_APPRENTICE_DVS99'
p641
g9
sS'KARATE_KID_DVS742'
p642
g9
sS'THE_WATCH_DVS328'
p643
g41
sS'21_JUMP_STREET_DVS266'
p644
g27
sS'ITS_COMPLICATED_DVS280'
p645
g7
sS'THE_WATCH_DVS322'
p646
g11
sS'21_JUMP_STREET_DVS269'
p647
g11
sS'21_JUMP_STREET_DVS36'
p648
g11
sS'LIFE_OF_PI_DVS139'
p649
g9
sS'IRON_MAN_2_DVS557'
p650
g11
sS'RUBY_SPARKS_DVS488'
p651
g11
sS'BLINDDATING_DVS196'
p652
g2
sS'TITANIC_1_DVS76'
p653
g11
sS'LAND_OF_THE_LOST_DVS29'
p654
g27
sS'DINNER_FOR_SCHMUCKS_DVS75'
p655
g17
sS'THE_ADVENTURES_OF_TINTIN_DVS457'
p656
g27
sS'CHARLIE_ST_CLOUD_DVS290'
p657
g11
sS'TITANIC_1_DVS357'
p658
g11
sS'UGLY_TRUTH_DVS340'
p659
g2
sS'BLINDDATING_DVS285'
p660
g11
sS'COLOMBIANA_DVS410'
p661
g2
sS'NANNY_MCPHEE_RETURNS_DVS35'
p662
g7
sS'THE_WATCH_DVS184'
p663
g2
sS'BURLESQUE_DVS746'
p664
g11
sS'LARRY_CROWNE_DVS138'
p665
g9
sS'HOW_DO_YOU_KNOW_DVS283'
p666
g27
sS'KARATE_KID_DVS1305'
p667
g11
sS'CINDERELLA_MAN_DVS37'
p668
g11
sS'THE_ADVENTURES_OF_TINTIN_DVS632'
p669
g11
sS'THE_ADVENTURES_OF_TINTIN_DVS636'
p670
g2
sS'NANNY_MCPHEE_RETURNS_DVS377'
p671
g2
sS'WE_BOUGHT_A_ZOO_DVS653'
p672
g11
sS'KATY_PERRY_PART_OF_ME_DVS321'
p673
g7
sS'TITANIC_1_DVS133'
p674
g11
sS'TITANIC_1_DVS130'
p675
g9
sS'500DAYSOFSUMMER_DVS227'
p676
g11
sS'COLOMBIANA_DVS576'
p677
g9
sS'ABRAHAM_LINCOLN_VAMPIRE_HUNTER_DVS353'
p678
g11
sS'KARATE_KID_DVS1230'
p679
g9
sS'THIS_MEANS_WAR_DVS481'
p680
g258
sS'NANNY_MCPHEE_RETURNS_DVS390'
p681
g17
sS'THIS_MEANS_WAR_DVS34'
p682
g9
sS'BATTLE_LOS_ANGELES_DVS76'
p683
g9
sS'MORNING_GLORY_DVS68'
p684
g2
sS'IN_TIME_DVS607'
p685
g2
sS'TOOTH_FAIRY_DVS28'
p686
g9
sS'500DAYSOFSUMMER_DVS133'
p687
g15
sS'SANCTUM_DVS40'
p688
g27
sS'BATTLE_LOS_ANGELES_DVS527'
p689
g9
sS'BATTLE_LOS_ANGELES_DVS525'
p690
g9
sS'BATTLE_LOS_ANGELES_DVS524'
p691
g41
sS'BATTLE_LOS_ANGELES_DVS523'
p692
g11
sS'LIFE_OF_PI_DVS550'
p693
g2
sS'SPARKLE_2012_DVS394'
p694
g17
sS'MORNING_GLORY_DVS49'
p695
g41
sS'MORNING_GLORY_DVS46'
p696
g17
sS'TOOTH_FAIRY_DVS94'
p697
g9
sS'MORNING_GLORY_DVS475'
p698
g11
sS'40_YEAR_OLD_VIRGIN_DVS209'
p699
g7
sS'THOR_DVS316'
p700
g11
sS'SUPER_8_DVS173'
p701
g11
sS'MORNING_GLORY_DVS476'
p702
g11
sS'BURLESQUE_DVS565'
p703
g41
sS'SUPER_8_DVS116'
p704
g11
sS'RUBY_SPARKS_DVS28'
p705
g11
sS'THE_ADVENTURES_OF_TINTIN_DVS69'
p706
g11
sS'COLOMBIANA_DVS426'
p707
g27
sS'KARATE_KID_DVS1430'
p708
g7
sS'CHRONICLE_DVS30'
p709
g7
sS'A_GOOD_DAY_TO_DIE_HARD_DVS541'
p710
g11
sS'THE_CALL_DVS281'
p711
g9
sS'THE_ADVENTURES_OF_TINTIN_DVS91'
p712
g11
sS'IN_TIME_DVS574'
p713
g9
sS'THE_DESCENDANTS_DVS129'
p714
g2
sS'INSIDE_MAN_DVS318'
p715
g7
sS'IN_TIME_DVS778'
p716
g11
sS'CINDERELLA_MAN_DVS450'
p717
g7
sS'CINDERELLA_MAN_DVS456'
p718
g17
sS'MORNING_GLORY_DVS210'
p719
g11
sS'MORNING_GLORY_DVS216'
p720
g11
sS'MORNING_GLORY_DVS215'
p721
g11
sS'THE_GIRL_WITH_THE_DRAGON_TATTOO_DVS776'
p722
g27
sS'HUGO_DVS736'
p723
g2
sS'HUGO_DVS737'
p724
g27
sS'IN_TIME_DVS372'
p725
g34
sS'FRIENDS_WITH_BENEFITS_DVS177'
p726
g7
sS'ZOMBIELAND_DVS467'
p727
g17
sS'BLINDDATING_DVS79'
p728
g11
sS'FRIENDS_WITH_BENEFITS_DVS178'
p729
g7
sS'HANSEL_GRETEL_WITCH_HUNTERS_DVS440'
p730
g2
sS'PUBLIC_ENEMIES_DVS28'
p731
g9
sS'CHASING_MAVERICKS_DVS1073'
p732
g27
sS'FRIENDS_WITH_BENEFITS_DVS26'
p733
g11
sS'TITANIC_2_DVS461'
p734
g9
sS'SALT_DVS81'
p735
g7
sS'EASY_A_DVS263'
p736
g11
sS'THE_WATCH_DVS543'
p737
g11
sS'XMEN_FIRST_CLASS_DVS567'
p738
g27
sS'21_JUMP_STREET_DVS454'
p739
g9
sS'PERCY_JACKSON_LIGHTENING_THIEF_DVS338'
p740
g2
sS'MR_POPPERS_PENGUINS_DVS434'
p741
g258
sS'COLOMBIANA_DVS176'
p742
S'annotated'
p743
sS'SORCERERS_APPRENTICE_DVS169'
p744
g11
sS'GHOST_RIDER_SPIRIT_OF_VENGEANCE_DVS333'
p745
g2
sS'COLOMBIANA_DVS171'
p746
g11
sS'BATTLE_LOS_ANGELES_DVS325'
p747
g2
sS'SORCERERS_APPRENTICE_DVS162'
p748
g17
sS'SORCERERS_APPRENTICE_DVS163'
p749
g7
sS'SUPER_8_DVS581'
p750
g11
sS'GREEN_ZONE_DVS18'
p751
g11
sS'JACK_AND_JILL_DVS322'
p752
g7
sS'THE_BOUNTY_HUNTER_DVS563'
p753
g9
sS'NO_STRINGS_ATTACHED_DVS97'
p754
g27
sS'IDES_OF_MARCH_DVS284'
p755
g2
sS'BATTLE_LOS_ANGELES_DVS328'
p756
g11
sS'ROBIN_HOOD_DVS202'
p757
g9
sS'ZOOKEEPER_DVS427'
p758
g9
sS'KARATE_KID_DVS351'
p759
g9
sS'ABRAHAM_LINCOLN_VAMPIRE_HUNTER_DVS640'
p760
g51
sS'XMEN_FIRST_CLASS_DVS1261'
p761
g11
sS'21_JUMP_STREET_DVS182'
p762
g11
sS'CAPTAIN_AMERICA_DVS558'
p763
g224
sS'CAPTAIN_AMERICA_DVS557'
p764
g224
sS'CAPTAIN_AMERICA_DVS556'
p765
g11
sS'THE_ROOMMATE_DVS98'
p766
g258
sS'ZOMBIELAND_DVS312'
p767
g7
sS'JACK_AND_JILL_DVS436'
p768
g17
sS'JACK_AND_JILL_DVS434'
p769
g41
sS'PARENTAL_GUIDANCE_DVS84'
p770
g11
sS'EASY_A_DVS23'
p771
g9
sS'PERCY_JACKSON_LIGHTENING_THIEF_DVS258'
p772
g11
sS'JACK_AND_JILL_DVS184'
p773
g11
sS'WHATS_YOUR_NUMBER_DVS750'
p774
g11
sS'RUBY_SPARKS_DVS451'
p775
g9
sS'CHASING_MAVERICKS_DVS335'
p776
g51
sS'CHASING_MAVERICKS_DVS331'
p777
g258
sS'KATY_PERRY_PART_OF_ME_DVS192'
p778
g2
sS'IN_TIME_DVS908'
p779
g11
sS'SOUL_SURFER_DVS226'
p780
g41
sS'JULIE_AND_JULIA_DVS316'
p781
g7
sS'THE_ROOMMATE_DVS400'
p782
g9
sS'THE_WATCH_DVS35'
p783
g11
sS'SNOW_FLOWER_FD_DVS495'
p784
g9
sS'BAD_TEACHER_DVS98'
p785
g27
sS'CAPTAIN_AMERICA_DVS554'
p786
g11
sS'WHATS_YOUR_NUMBER_DVS354'
p787
g17
sS'TITANIC_1_DVS556'
p788
g9
sS'CAPTAIN_AMERICA_DVS498'
p789
g2
sS'BURLESQUE_DVS360'
p790
g2
sS'COLOMBIANA_DVS314'
p791
g17
sS'CHARLIE_ST_CLOUD_DVS352'
p792
g9
sS'KARATE_KID_DVS1159'
p793
g2
sS'NANNY_MCPHEE_RETURNS_DVS147'
p794
g9
sS'NANNY_MCPHEE_RETURNS_DVS493'
p795
g51
sS'IRON_MAN_2_DVS546'
p796
g11
sS'UGLY_TRUTH_DVS355'
p797
g17
sS'30_MINUTES_OR_LESS_DVS251'
p798
g11
sS'WE_BOUGHT_A_ZOO_DVS420'
p799
g17
sS'THOR_DVS82'
p800
g11
sS'TITANIC_1_DVS342'
p801
g11
sS'COLOMBIANA_DVS407'
p802
S'annotated'
p803
sS'CHASING_MAVERICKS_DVS428'
p804
g2
sS'THE_ADVENTURES_OF_TINTIN_DVS489'
p805
g34
sS'SUPER_8_DVS94'
p806
g11
sS'HOW_DO_YOU_KNOW_DVS295'
p807
g11
sS'JULIE_AND_JULIA_DVS605'
p808
g9
sS'THE_ADVENTURES_OF_TINTIN_DVS480'
p809
g11
sS'CHASING_MAVERICKS_DVS522'
p810
g743
sS'WE_BOUGHT_A_ZOO_DVS37'
p811
g41
sS'COLOMBIANA_DVS733'
p812
g9
sS'ZOMBIELAND_DVS646'
p813
g11
sS'FLIGHT_DVS81'
p814
g2
sS'PROMETHEUS_DVS933'
p815
g51
sS'PROMETHEUS_DVS932'
p816
g11
sS'TITANIC_1_DVS127'
p817
g11
sS'GROWN_UPS_DVS15'
p818
g11
sS'XMEN_FIRST_CLASS_DVS1137'
p819
g2
sS'SPARKLE_2012_DVS526'
p820
g7
sS'SPARKLE_2012_DVS521'
p821
g41
sS'THE_ADVENTURES_OF_TINTIN_DVS155'
p822
g11
sS'30_MINUTES_OR_LESS_DVS100'
p823
g51
sS'GHOST_RIDER_SPIRIT_OF_VENGEANCE_DVS17'
p824
g51
sS'UGLY_TRUTH_DVS623'
p825
g27
sS'SUPER_8_DVS213'
p826
g62
sS'500DAYSOFSUMMER_DVS120'
p827
g15
sS'500DAYSOFSUMMER_DVS433'
p828
g15
sS'THE_GUILT_TRIP_DVS281'
p829
g11
sS'21_JUMP_STREET_DVS61'
p830
g228
sS'PUBLIC_ENEMIES_DVS568'
p831
g11
sS'THE_GUILT_TRIP_DVS159'
p832
g17
sS'THE_ART_OF_GETTING_BY_DVS263'
p833
g9
sS'TOOTH_FAIRY_DVS300'
p834
g27
sS'MORNING_GLORY_DVS55'
p835
g11
sS'MR_POPPERS_PENGUINS_DVS642'
p836
g51
sS'40_YEAR_OLD_VIRGIN_DVS218'
p837
g11
sS'THOR_DVS364'
p838
g11
sS'THINK_LIKE_A_MAN_DVS326'
p839
g11
sS'NO_STRINGS_ATTACHED_DVS100'
p840
g11
sS'BRUNO_DVS109'
p841
g9
sS'THE_GIRL_WITH_THE_DRAGON_TATTOO_DVS347'
p842
g51
sS'A_GOOD_DAY_TO_DIE_HARD_DVS559'
p843
g15
sS'MR_POPPERS_PENGUINS_DVS609'
p844
g17
sS'PARENTAL_GUIDANCE_DVS383'
p845
g9
sS'CHASING_MAVERICKS_DVS859'
p846
g258
sS'INSIDE_MAN_DVS257'
p847
g27
sS'HANSEL_GRETEL_WITCH_HUNTERS_DVS272'
p848
g27
sS'MR_POPPERS_PENGUINS_DVS114'
p849
g34
sS'TITANIC_2_DVS672'
p850
g11
sS'MR_POPPERS_PENGUINS_DVS111'
p851
g34
sS'BURLESQUE_DVS429'
p852
g2
sS'HUGO_DVS705'
p853
g9
sS'IN_TIME_DVS909'
p854
g9
sS'WHATS_YOUR_NUMBER_DVS576'
p855
g9
sS'MR_POPPERS_PENGUINS_DVS281'
p856
g41
sS'CINDERELLA_MAN_DVS481'
p857
g17
sS'BLINDDATING_DVS86'
p858
g46
sS'THE_CALL_DVS671'
p859
g7
sS'PUBLIC_ENEMIES_DVS31'
p860
g11
sS'THOR_DVS151'
p861
g62
sS'THINK_LIKE_A_MAN_DVS259'
p862
g7
sS'THE_DESCENDANTS_DVS448'
p863
g9
sS'BURLESQUE_DVS85'
p864
g17
sS'THE_BIG_YEAR_DVS203'
p865
g9
sS'YOUNG_ADULT_DVS49'
p866
g9
sS'HUGO_DVS148'
p867
g9
sS'CHRONICLE_DVS27'
p868
g7
sS'HUGO_DVS143'
p869
g11
sS'CHARLIE_ST_CLOUD_DVS136'
p870
g9
sS'21_JUMP_STREET_DVS462'
p871
g11
sS'21_JUMP_STREET_DVS464'
p872
g11
sS'GHOST_RIDER_SPIRIT_OF_VENGEANCE_DVS308'
p873
g9
sS'BATTLE_LOS_ANGELES_DVS202'
p874
g7
sS'JACK_AND_JILL_DVS118'
p875
g7
sS'A_THOUSAND_WORDS_DVS19'
p876
g7
sS'ZOOKEEPER_DVS214'
p877
g2
sS'IN_TIME_DVS176'
p878
g9
sS'CHASING_MAVERICKS_DVS591'
p879
g7
sS'HANSEL_GRETEL_WITCH_HUNTERS_DVS128'
p880
g27
sS'THE_BOUNTY_HUNTER_DVS352'
p881
g62
sS'ZOMBIELAND_DVS529'
p882
g17
sS'LARRY_CROWNE_DVS13'
p883
g27
sS'CAPTAIN_AMERICA_DVS308'
p884
g11
sS'JACK_AND_JILL_DVS332'
p885
g51
sS'JACK_AND_JILL_DVS192'
p886
g7
sS'GREEN_ZONE_DVS412'
p887
g11
sS'LIFE_OF_PI_DVS338'
p888
g7
sS'ZOMBIELAND_DVS639'
p889
g7
sS'LIFE_OF_PI_DVS423'
p890
g62
sS'LIFE_OF_PI_DVS426'
p891
g11
sS'JACK_AND_JILL_DVS425'
p892
g41
sS'EASY_A_DVS38'
p893
g11
sS'CHRONICLE_DVS133'
p894
g17
sS'WHATS_YOUR_NUMBER_DVS722'
p895
g11
sS'PERCY_JACKSON_LIGHTENING_THIEF_DVS135'
p896
g11
sS'PERCY_JACKSON_LIGHTENING_THIEF_DVS137'
p897
g2
sS'TITANIC_1_DVS309'
p898
g11
sS'THE_ROOMMATE_DVS375'
p899
g2
sS'GHOST_RIDER_SPIRIT_OF_VENGEANCE_DVS277'
p900
g9
sS'SALT_DVS282'
p901
g11
sS'IN_TIME_DVS916'
p902
g9
sS'ROBIN_HOOD_DVS22'
p903
g11
sS'IN_TIME_DVS57'
p904
g27
sS'LIFE_OF_PI_DVS374'
p905
g7
sS'ITS_COMPLICATED_DVS267'
p906
g9
sS'CHASING_MAVERICKS_DVS184'
p907
g11
sS'WHATS_YOUR_NUMBER_DVS435'
p908
g17
sS'NANNY_MCPHEE_RETURNS_DVS480'
p909
g11
sS'COLOMBIANA_DVS976'
p910
g2
sS'IRON_MAN_2_DVS537'
p911
g11
sS'IRON_MAN_2_DVS536'
p912
g11
sS'MORNING_GLORY_DVS490'
p913
g7
sS'FLIGHT_DVS511'
p914
g27
sS'A_THOUSAND_WORDS_DVS386'
p915
g2
sS'IRON_MAN_2_DVS624'
p916
g9
sS'CHASING_MAVERICKS_DVS454'
p917
g34
sS'TITANIC_1_DVS332'
p918
g41
sS'BURLESQUE_DVS229'
p919
g27
sS'KATY_PERRY_PART_OF_ME_DVS234'
p920
g7
sS'TITANIC_1_DVS338'
p921
g11
sS'BIG_MOMMAS_LIKE_FATHER_LIKE_SON_DVS415'
p922
g9
sS'COLOMBIANA_DVS438'
p923
g11
sS'UGLY_TRUTH_DVS384'
p924
g9
sS'SUPER_8_DVS353'
p925
g11
sS'CHASING_MAVERICKS_DVS534'
p926
g17
sS'SNOW_FLOWER_FD_DVS683'
p927
g41
sS'IRON_MAN_2_DVS441'
p928
g2
sS'THE_SITTER_DVS131'
p929
g17
sS'TITANIC_1_DVS248'
p930
g11
sS'TITANIC_1_DVS249'
p931
g11
sS'RUBY_SPARKS_DVS136'
p932
g11
sS'RUBY_SPARKS_DVS130'
p933
g34
sS'NANNY_MCPHEE_RETURNS_DVS153'
p934
g9
sS'CHRONICLE_DVS147'
p935
g27
sS'TITANIC_1_DVS247'
p936
g11
sS'ABRAHAM_LINCOLN_VAMPIRE_HUNTER_DVS423'
p937
g7
sS'GROWN_UPS_DVS68'
p938
g11
sS'WE_BOUGHT_A_ZOO_DVS679'
p939
g34
sS'COLOMBIANA_DVS886'
p940
g258
sS'THE_VOW_DVS480'
p941
g11
sS'THE_ADVENTURES_OF_TINTIN_DVS143'
p942
g11
sS'THE_ADVENTURES_OF_TINTIN_DVS144'
p943
g11
sS'LITTLE_FOCKERS_DVS241'
p944
g2
sS'THE_ADVENTURES_OF_TINTIN_DVS148'
p945
g11
sS'30_MINUTES_OR_LESS_DVS116'
p946
g228
sS'BATTLE_LOS_ANGELES_DVS542'
p947
g27
sS'TITANIC_1_DVS460'
p948
g34
sS'TITANIC_1_DVS461'
p949
g258
sS'THE_BIG_YEAR_DVS148'
p950
g11
sS'EASY_A_DVS193'
p951
g17
sS'THE_VOW_DVS700'
p952
g17
sS'SANCTUM_DVS22'
p953
g34
sS'21_JUMP_STREET_DVS73'
p954
g11
sS'SPARKLE_2012_DVS461'
p955
g17
sS'THE_BIG_YEAR_DVS569'
p956
g9
sS'HOW_DO_YOU_KNOW_DVS311'
p957
g17
sS'HUGO_DVS626'
p958
g2
sS'HUGO_DVS627'
p959
g7
sS'HUGO_DVS623'
p960
g17
sS'THOR_DVS372'
p961
g11
sS'TOOTH_FAIRY_DVS120'
p962
g27
sS'THE_ADVENTURES_OF_TINTIN_DVS42'
p963
g9
sS'TOOTH_FAIRY_DVS122'
p964
g2
sS'THE_ADVENTURES_OF_TINTIN_DVS49'
p965
g11
sS'HUGO_DVS393'
p966
g27
sS'A_GOOD_DAY_TO_DIE_HARD_DVS529'
p967
g51
sS'MR_POPPERS_PENGUINS_DVS632'
p968
g11
sS'21_JUMP_STREET_DVS681'
p969
g41
sS'A_GOOD_DAY_TO_DIE_HARD_DVS527'
p970
g11
sS'BURLESQUE_DVS439'
p971
g41
sS'40_YEAR_OLD_VIRGIN_DVS228'
p972
g11
sS'TITANIC_2_DVS663'
p973
g11
sS'TITANIC_2_DVS662'
p974
g11
sS'HUGO_DVS711'
p975
g11
sS'TITANIC_2_DVS665'
p976
g11
sS'MORNING_GLORY_DVS232'
p977
g17
sS'MORNING_GLORY_DVS234'
p978
g17
sS'THE_VOW_DVS155'
p979
g9
sS'SUPER_8_DVS27'
p980
g11
sS'DISTRICT_9_DVS505'
p981
g9
sS'CINDERELLA_MAN_DVS493'
p982
g7
sS'CINDERELLA_MAN_DVS491'
p983
g9
sS'IN_TIME_DVS136'
p984
g9
sS'ZOMBIELAND_DVS408'
p985
g11
sS'WE_BOUGHT_A_ZOO_DVS66'
p986
g2
sS'FRIENDS_WITH_BENEFITS_DVS159'
p987
g62
sS'MR_POPPERS_PENGUINS_DVS701'
p988
g11
sS'FRIENDS_WITH_BENEFITS_DVS151'
p989
g41
sS'TITANIC_2_DVS405'
p990
g9
sS'THOR_DVS168'
p991
g11
sS'BURLESQUE_DVS97'
p992
g27
sS'TOOTH_FAIRY_DVS582'
p993
g11
sS'HUGO_DVS405'
p994
g41
sS'JUST_GO_WITH_IT_DVS238'
p995
g7
sS'CHARLIE_ST_CLOUD_DVS126'
p996
g224
sS'CHARLIE_ST_CLOUD_DVS125'
p997
g11
sS'A_GOOD_DAY_TO_DIE_HARD_DVS458'
p998
g17
sS'JUST_GO_WITH_IT_DVS236'
p999
g17
sS'GHOST_RIDER_SPIRIT_OF_VENGEANCE_DVS485'
p1000
g258
sS'IN_TIME_DVS627'
p1001
g9
sS'COLOMBIANA_DVS159'
p1002
g743
sS'SORCERERS_APPRENTICE_DVS416'
p1003
g9
sS'IN_TIME_DVS620'
p1004
g27
sS'COLOMBIANA_DVS150'
p1005
g62
sS'MORNING_GLORY_DVS163'
p1006
g11
sS'ZOOKEEPER_DVS229'
p1007
g62
sS'HANSEL_GRETEL_WITCH_HUNTERS_DVS135'
p1008
g11
sS'BAD_TEACHER_DVS162'
p1009
g7
sS'HANSEL_GRETEL_WITCH_HUNTERS_DVS138'
p1010
g11
sS'CAPTAIN_AMERICA_DVS313'
p1011
g224
sS'CAPTAIN_AMERICA_DVS312'
p1012
g11
sS'HANSEL_GRETEL_WITCH_HUNTERS_DVS484'
p1013
g11
sS'A_THOUSAND_WORDS_DVS28'
p1014
g15
sS'THE_GIRL_WITH_THE_DRAGON_TATTOO_DVS1398'
p1015
g9
sS'NO_STRINGS_ATTACHED_DVS344'
p1016
g17
sS'ROBIN_HOOD_DVS266'
p1017
g9
sS'THE_GIRL_WITH_THE_DRAGON_TATTOO_DVS1397'
p1018
g9
sS'GREEN_ZONE_DVS465'
p1019
g9
sS'THE_ADVENTURES_OF_TINTIN_DVS487'
p1020
g62
sS'CAPTAIN_AMERICA_DVS535'
p1021
g11
sS'LIFE_OF_PI_DVS438'
p1022
g41
sS'ZOMBIELAND_DVS627'
p1023
g11
sS'THOR_DVS589'
p1024
g11
sS'LIFE_OF_PI_DVS978'
p1025
g11
sS'JACK_AND_JILL_DVS450'
p1026
g62
sS'ZOMBIELAND_DVS335'
p1027
g9
sS'ITS_COMPLICATED_DVS311'
p1028
g17
sS'XMEN_FIRST_CLASS_DVS434'
p1029
g62
sS'CAPTAIN_AMERICA_DVS76'
p1030
g7
sS'CAPTAIN_AMERICA_DVS78'
p1031
g2
sS'WHATS_YOUR_NUMBER_DVS738'
p1032
g2
sS'IN_TIME_DVS924'
p1033
g17
sS'BRUNO_DVS83'
p1034
g27
sS'IN_TIME_DVS922'
p1035
g11
sS'SNOW_FLOWER_FD_DVS273'
p1036
g258
sS'FLIGHT_DVS213'
p1037
g9
sS'SANCTUM_DVS428'
p1038
g2
sS'LIFE_OF_PI_DVS321'
p1039
g62
sS'ZOMBIELAND_DVS750'
p1040
g9
sS'ZOMBIELAND_DVS751'
p1041
g2
sS'CHASING_MAVERICKS_DVS192'
p1042
g62
sS'LIFE_OF_PI_DVS694'
p1043
g62
sS'SORCERERS_APPRENTICE_DVS47'
p1044
g258
sS'ITS_COMPLICATED_DVS275'
p1045
g17
sS'ITS_COMPLICATED_DVS274'
p1046
g7
sS'ITS_COMPLICATED_DVS273'
p1047
g9
sS'ABRAHAM_LINCOLN_VAMPIRE_HUNTER_DVS584'
p1048
g62
sS'WHATS_YOUR_NUMBER_DVS421'
p1049
g7
sS'THE_ADVENTURES_OF_TINTIN_DVS556'
p1050
g11
sS'JACK_AND_JILL_DVS31'
p1051
g11
sS'THIS_MEANS_WAR_DVS384'
p1052
g7
sS'KARATE_KID_DVS422'
p1053
g9
sS'SALT_DVS341'
p1054
g41
sS'NO_STRINGS_ATTACHED_DVS55'
p1055
g11
sS'JULIE_AND_JULIA_DVS52'
p1056
g9
sS'KATY_PERRY_PART_OF_ME_DVS228'
p1057
g11
sS'TITANIC_1_DVS324'
p1058
g11
sS'BURLESQUE_DVS236'
p1059
g27
sS'COLOMBIANA_DVS420'
p1060
g2
sS'COLOMBIANA_DVS423'
p1061
g27
sS'CHARLIE_ST_CLOUD_DVS241'
p1062
g11
sS'KARATE_KID_DVS1043'
p1063
g9
sS'SUPER_8_DVS343'
p1064
g9
sS'MR_POPPERS_PENGUINS_DVS30'
p1065
g17
sS'KARATE_KID_DVS1047'
p1066
g2
sS'MR_POPPERS_PENGUINS_DVS174'
p1067
g11
sS'RUBY_SPARKS_DVS216'
p1068
g11
sS'TITANIC_1_DVS259'
p1069
g11
sS'TITANIC_1_DVS251'
p1070
g11
sS'TITANIC_1_DVS250'
p1071
g11
sS'KATY_PERRY_PART_OF_ME_DVS319'
p1072
g9
sS'TITANIC_1_DVS256'
p1073
g11
sS'GREEN_ZONE_DVS115'
p1074
g17
sS'TOOTH_FAIRY_DVS875'
p1075
g62
sS'TOOTH_FAIRY_DVS874'
p1076
g9
sS'JULIE_AND_JULIA_DVS240'
p1077
g7
sS'DEATH_AT_A_FUNERAL_DVS234'
p1078
g2
sS'GHOST_RIDER_SPIRIT_OF_VENGEANCE_DVS31'
p1079
g258
sS'DEATH_AT_A_FUNERAL_DVS237'
p1080
g41
sS'FLIGHT_DVS187'
p1081
g9
sS'RUBY_SPARKS_DVS672'
p1082
g11
sS'RUBY_SPARKS_DVS671'
p1083
g11
sS'GROWN_UPS_DVS142'
p1084
g41
sS'TITANIC_1_DVS475'
p1085
g34
sS'THE_BIG_YEAR_DVS171'
p1086
g11
sS'THE_BIG_YEAR_DVS174'
p1087
g11
sS'THE_BIG_YEAR_DVS176'
p1088
g7
sS'THE_VOW_DVS361'
p1089
g258
sS'DEAR_JOHN_DVS181'
p1090
g11
sS'THE_VOW_DVS366'
p1091
g51
sS'PUBLIC_ENEMIES_DVS618'
p1092
g9
sS'PUBLIC_ENEMIES_DVS619'
p1093
g9
sS'THE_DESCENDANTS_DVS90'
p1094
g9
sS'THE_DESCENDANTS_DVS91'
p1095
g11
sS'500DAYSOFSUMMER_DVS102'
p1096
g9
sS'SPARKLE_2012_DVS476'
p1097
g27
sS'21_JUMP_STREET_DVS88'
p1098
g15
sS'CHASING_MAVERICKS_DVS610'
p1099
g9
sS'COLOMBIANA_DVS632'
p1100
g9
sS'ZOMBIELAND_DVS669'
p1101
g51
sS'THE_CALL_DVS508'
p1102
g11
sS'EASY_A_DVS233'
p1103
g2
sS'THOR_DVS428'
p1104
g17
sS'PARENTAL_GUIDANCE_DVS292'
p1105
g51
sS'BATTLE_LOS_ANGELES_DVS485'
p1106
g17
sS'THE_ADVENTURES_OF_TINTIN_DVS53'
p1107
g11
sS'THE_ADVENTURES_OF_TINTIN_DVS52'
p1108
g2
sS'THINK_LIKE_A_MAN_DVS309'
p1109
g51
sS'FLIGHT_DVS66'
p1110
g11
sS'HUGO_DVS361'
p1111
g9
sS'SPARKLE_2012_DVS293'
p1112
g9
sS'THE_BOUNTY_HUNTER_DVS110'
p1113
g7
sS'IN_TIME_DVS725'
p1114
g2
sS'DEAR_JOHN_DVS411'
p1115
g9
sS'TITANIC_2_DVS658'
p1116
g11
sS'HUGO_DVS766'
p1117
g51
sS'WHATS_YOUR_NUMBER_DVS734'
p1118
g7
sS'THE_BIG_YEAR_DVS190'
p1119
g17
sS'THE_BIG_YEAR_DVS197'
p1120
g27
sS'THE_VOW_DVS638'
p1121
g258
sS'HUGO_DVS505'
p1122
g34
sS'THE_ART_OF_GETTING_BY_DVS292'
p1123
g11
sS'ZOMBIELAND_DVS437'
p1124
g7
sS'THE_ART_OF_GETTING_BY_DVS298'
p1125
g2
sS'KARATE_KID_DVS186'
p1126
g17
sS'IN_TIME_DVS380'
p1127
g34
sS'IN_TIME_DVS383'
p1128
g34
sS'COLOMBIANA_DVS1080'
p1129
g9
sS'THINK_LIKE_A_MAN_DVS472'
p1130
g9
sS'THE_DESCENDANTS_DVS460'
p1131
g11
sS'MR_POPPERS_PENGUINS_DVS625'
p1132
g27
sS'MR_POPPERS_PENGUINS_DVS624'
p1133
g27
sS'JUST_GO_WITH_IT_DVS145'
p1134
g11
sS'THE_BIG_YEAR_DVS226'
p1135
g51
sS'SALT_DVS403'
p1136
g11
sS'CHASING_MAVERICKS_DVS1027'
p1137
g9
sS'CHRONICLE_DVS43'
p1138
g27
sS'FRIENDS_WITH_BENEFITS_DVS73'
p1139
g11
sS'SORCERERS_APPRENTICE_DVS310'
p1140
g11
sS'FRIENDS_WITH_BENEFITS_DVS234'
p1141
g7
sS'XMEN_FIRST_CLASS_DVS530'
p1142
g2
sS'IN_TIME_DVS652'
p1143
g2
sS'HUGO_DVS183'
p1144
g9
sS'HUGO_DVS180'
p1145
g2
sS'YOUNG_ADULT_DVS274'
p1146
g7
sS'LIFE_OF_PI_DVS153'
p1147
g9
sS'THE_GIRL_WITH_THE_DRAGON_TATTOO_DVS1259'
p1148
g17
sS'KARATE_KID_DVS878'
p1149
g2
sS'TOOTH_FAIRY_DVS486'
p1150
g9
sS'30_MINUTES_OR_LESS_DVS21'
p1151
S'annotated'
p1152
sS'PARENTAL_GUIDANCE_DVS349'
p1153
g17
sS'SANCTUM_DVS30'
p1154
g17
sS'CAPTAIN_AMERICA_DVS324'
p1155
g11
sS'ITS_COMPLICATED_DVS413'
p1156
g17
sS'LARRY_CROWNE_DVS39'
p1157
g27
sS'DISTRICT_9_DVS401'
p1158
g27
sS'THE_SITTER_DVS19'
p1159
g27
sS'YOUNG_ADULT_DVS388'
p1160
g9
sS'IDES_OF_MARCH_DVS256'
p1161
g9
sS'LIFE_OF_PI_DVS597'
p1162
g34
sS'ZOMBIELAND_DVS291'
p1163
g7
sS'PROMETHEUS_DVS1024'
p1164
g51
sS'THOR_DVS594'
p1165
g9
sS'BURLESQUE_DVS333'
p1166
g2
sS'A_THOUSAND_WORDS_DVS438'
p1167
g41
sS'SORCERERS_APPRENTICE_DVS87'
p1168
g17
sS'THE_GUILT_TRIP_DVS283'
p1169
g41
sS'WHATS_YOUR_NUMBER_DVS258'
p1170
g9
sS'LIFE_OF_PI_DVS774'
p1171
g9
sS'SNOW_FLOWER_FD_DVS204'
p1172
g11
sS'IN_TIME_DVS935'
p1173
g9
sS'IN_TIME_DVS934'
p1174
g17
sS'WHATS_YOUR_NUMBER_DVS702'
p1175
g11
sS'XMEN_FIRST_CLASS_DVS944'
p1176
g9
sS'KATY_PERRY_PART_OF_ME_DVS32'
p1177
g7
sS'WHATS_YOUR_NUMBER_DVS707'
p1178
g11
sS'LIFE_OF_PI_DVS778'
p1179
g27
sS'CAPTAIN_AMERICA_DVS506'
p1180
g9
sS'COLOMBIANA_DVS182'
p1181
g62
sS'IN_TIME_DVS75'
p1182
g2
sS'21_JUMP_STREET_DVS225'
p1183
g11
sS'WE_BOUGHT_A_ZOO_DVS275'
p1184
g17
sS'LIFE_OF_PI_DVS178'
p1185
g11
sS'LAND_OF_THE_LOST_DVS69'
p1186
g9
sS'THE_WATCH_DVS388'
p1187
g11
sS'KARATE_KID_DVS899'
p1188
g2
sS'THE_WATCH_DVS380'
p1189
g2
sS'UGLY_TRUTH_DVS257'
p1190
g11
sS'BIG_MOMMAS_LIKE_FATHER_LIKE_SON_DVS470'
p1191
g27
sS'FLIGHT_DVS530'
p1192
g41
sS'21_JUMP_STREET_DVS135'
p1193
g11
sS'TITANIC_1_DVS318'
p1194
g2
sS'BURLESQUE_DVS202'
p1195
g2
sS'TITANIC_1_DVS310'
p1196
g11
sS'TITANIC_1_DVS317'
p1197
g62
sS'WE_BOUGHT_A_ZOO_DVS454'
p1198
g9
sS'SUPER_8_DVS579'
p1199
g11
sS'IRON_MAN_2_DVS514'
p1200
g11
sS'WE_BOUGHT_A_ZOO_DVS507'
p1201
g9
sS'RUBY_SPARKS_DVS115'
p1202
g11
sS'JULIE_AND_JULIA_DVS60'
p1203
g9
sS'TITANIC_1_DVS263'
p1204
g11
sS'RUBY_SPARKS_DVS447'
p1205
g7
sS'A_THOUSAND_WORDS_DVS299'
p1206
g11
sS'PROMETHEUS_DVS901'
p1207
g11
sS'MR_POPPERS_PENGUINS_DVS546'
p1208
g9
sS'30_MINUTES_OR_LESS_DVS138'
p1209
g228
sS'CHASING_MAVERICKS_DVS602'
p1210
g62
sS'TITANIC_1_DVS446'
p1211
g11
sS'KARATE_KID_DVS1580'
p1212
g62
sS'THE_CALL_DVS1108'
p1213
g27
sS'THE_ADVENTURES_OF_TINTIN_DVS164'
p1214
g51
sS'PUBLIC_ENEMIES_DVS338'
p1215
g9
sS'SUPER_8_DVS487'
p1216
g11
sS'SUPER_8_DVS485'
p1217
g2
sS'SUPER_8_DVS488'
p1218
g51
sS'COLOMBIANA_DVS628'
p1219
g2
sS'GHOST_RIDER_SPIRIT_OF_VENGEANCE_DVS20'
p1220
g27
sS'GHOST_RIDER_SPIRIT_OF_VENGEANCE_DVS22'
p1221
g11
sS'21_JUMP_STREET_DVS96'
p1222
g27
sS'COLOMBIANA_DVS627'
p1223
g34
sS'COLOMBIANA_DVS625'
p1224
g34
sS'KARATE_KID_DVS1472'
p1225
g27
sS'THINK_LIKE_A_MAN_DVS486'
p1226
g7
sS'HUGO_DVS632'
p1227
g51
sS'INSIDE_MAN_DVS54'
p1228
g27
sS'INSIDE_MAN_DVS55'
p1229
g2
sS'CINDERELLA_MAN_DVS382'
p1230
g7
sS'SUPER_8_DVS620'
p1231
g41
sS'SUPER_8_DVS153'
p1232
g11
sS'BATTLE_LOS_ANGELES_DVS31'
p1233
g17
sS'DEAR_JOHN_DVS598'
p1234
g9
sS'THE_GIRL_WITH_THE_DRAGON_TATTOO_DVS601'
p1235
g17
sS'SUPER_8_DVS393'
p1236
g9
sS'A_THOUSAND_WORDS_DVS246'
p1237
g9
sS'INSIDE_MAN_DVS429'
p1238
g27
sS'KARATE_KID_DVS597'
p1239
g62
sS'IN_TIME_DVS738'
p1240
g11
sS'HUGO_DVS375'
p1241
g9
sS'IN_TIME_DVS731'
p1242
g11
sS'IN_TIME_DVS730'
p1243
g62
sS'THE_ADVENTURES_OF_TINTIN_DVS88'
p1244
g11
sS'THIS_MEANS_WAR_DVS98'
p1245
g9
sS'SOUL_SURFER_DVS51'
p1246
g11
sS'COLOMBIANA_DVS848'
p1247
g7
sS'HUGO_DVS777'
p1248
g9
sS'HUGO_DVS69'
p1249
g11
sS'JULIE_AND_JULIA_DVS500'
p1250
g41
sS'CINDERELLA_MAN_DVS264'
p1251
g11
sS'ZOMBIELAND_DVS425'
p1252
g51
sS'HANSEL_GRETEL_WITCH_HUNTERS_DVS59'
p1253
g11
sS'IN_TIME_DVS394'
p1254
g9
sS'HANSEL_GRETEL_WITCH_HUNTERS_DVS244'
p1255
g11
sS'TOOTH_FAIRY_DVS833'
p1256
g41
sS'THE_ART_OF_GETTING_BY_DVS197'
p1257
g9
sS'A_GOOD_DAY_TO_DIE_HARD_DVS290'
p1258
g7
sS'MR_POPPERS_PENGUINS_DVS653'
p1259
g11
sS'THE_BIG_YEAR_DVS238'
p1260
g11
sS'TITANIC_2_DVS421'
p1261
g9
sS'THE_CALL_DVS797'
p1262
g11
sS'HUGO_DVS792'
p1263
g17
sS'FRIENDS_WITH_BENEFITS_DVS225'
p1264
g41
sS'THE_DESCENDANTS_DVS491'
p1265
g9
sS'HUGO_DVS199'
p1266
g9
sS'NO_STRINGS_ATTACHED_DVS214'
p1267
g11
sS'NO_STRINGS_ATTACHED_DVS216'
p1268
g11
sS'21_JUMP_STREET_DVS418'
p1269
g51
sS'HUGO_DVS193'
p1270
g11
sS'SORCERERS_APPRENTICE_DVS128'
p1271
g62
sS'BAD_TEACHER_DVS188'
p1272
g27
sS'HANSEL_GRETEL_WITCH_HUNTERS_DVS117'
p1273
g11
sS'30_MINUTES_OR_LESS_DVS55'
p1274
g17
sS'CAPTAIN_AMERICA_DVS338'
p1275
g11
sS'COLOMBIANA_DVS165'
p1276
g11
sS'PERCY_JACKSON_LIGHTENING_THIEF_DVS379'
p1277
g27
sS'XMEN_FIRST_CLASS_DVS413'
p1278
g11
sS'ROBIN_HOOD_DVS244'
p1279
g9
sS'GREEN_ZONE_DVS440'
p1280
g27
sS'LIFE_OF_PI_DVS588'
p1281
g2
sS'ZOMBIELAND_DVS191'
p1282
g2
sS'GHOST_RIDER_SPIRIT_OF_VENGEANCE_DVS447'
p1283
g258
sS'GHOST_RIDER_SPIRIT_OF_VENGEANCE_DVS443'
p1284
g51
sS'THE_BOUNTY_HUNTER_DVS256'
p1285
g9
sS'GHOST_RIDER_SPIRIT_OF_VENGEANCE_DVS113'
p1286
g11
sS'CAPTAIN_AMERICA_DVS427'
p1287
g11
sS'ITS_COMPLICATED_DVS331'
p1288
g41
sS'A_GOOD_DAY_TO_DIE_HARD_DVS879'
p1289
g11
sS'ROBIN_HOOD_DVS338'
p1290
g9
sS'CAPTAIN_AMERICA_DVS50'
p1291
g2
sS'ABRAHAM_LINCOLN_VAMPIRE_HUNTER_DVS597'
p1292
g62
sS'ABRAHAM_LINCOLN_VAMPIRE_HUNTER_DVS596'
p1293
g62
sS'TRUE_GRIT_DVS473'
p1294
g27
sS'YOUNG_ADULT_DVS137'
p1295
g9
sS'GHOST_RIDER_SPIRIT_OF_VENGEANCE_DVS284'
p1296
g9
sS'SNOW_FLOWER_FD_DVS218'
p1297
g2
sS'CAPTAIN_AMERICA_DVS604'
p1298
g11
sS'WHATS_YOUR_NUMBER_DVS710'
p1299
g7
sS'GHOST_RIDER_SPIRIT_OF_VENGEANCE_DVS282'
p1300
g9
sS'CAPTAIN_AMERICA_DVS516'
p1301
g2
sS'CAPTAIN_AMERICA_DVS514'
p1302
g2
sS'BAD_TEACHER_DVS310'
p1303
g17
sS'WHATS_YOUR_NUMBER_DVS627'
p1304
g51
sS'KARATE_KID_DVS718'
p1305
g9
sS'THE_DESCENDANTS_DVS523'
p1306
g41
sS'GHOST_RIDER_SPIRIT_OF_VENGEANCE_DVS179'
p1307
g2
sS'LIFE_OF_PI_DVS853'
p1308
g11
sS'A_THOUSAND_WORDS_DVS194'
p1309
g9
sS'LIFE_OF_PI_DVS166'
p1310
g11
sS'LIFE_OF_PI_DVS164'
p1311
g258
sS'SNOW_FLOWER_FD_DVS502'
p1312
g2
sS'BIG_MOMMAS_LIKE_FATHER_LIKE_SON_DVS266'
p1313
S'annotated'
p1314
sS'THE_ADVENTURES_OF_TINTIN_DVS572'
p1315
g11
sS'IRON_MAN_2_DVS291'
p1316
g27
sS'KARATE_KID_DVS882'
p1317
g2
sS'COLOMBIANA_DVS82'
p1318
g258
sS'KARATE_KID_DVS1110'
p1319
g11
sS'THE_ART_OF_GETTING_BY_DVS255'
p1320
g9
sS'THE_WATCH_DVS395'
p1321
g27
sS'FLIGHT_DVS527'
p1322
g41
sS'IRON_MAN_2_DVS298'
p1323
g51
sS'COLOMBIANA_DVS88'
p1324
g41
sS'ABRAHAM_LINCOLN_VAMPIRE_HUNTER_DVS575'
p1325
g2
sS'SALT_DVS363'
p1326
g17
sS'KATY_PERRY_PART_OF_ME_DVS158'
p1327
g41
sS'BURLESQUE_DVS218'
p1328
g11
sS'KARATE_KID_DVS404'
p1329
g7
sS'THE_SOCIAL_NETWORK_DVS84'
p1330
g17
sS'BURLESQUE_DVS211'
p1331
g41
sS'TITANIC_1_DVS304'
p1332
g34
sS'COLOMBIANA_DVS444'
p1333
g62
sS'TITANIC_1_DVS301'
p1334
g34
sS'THE_SITTER_DVS144'
p1335
g27
sS'BLINDDATING_DVS239'
p1336
g27
sS'THE_SITTER_DVS141'
p1337
g51
sS'IRON_MAN_2_DVS180'
p1338
g11
sS'SUPER_8_DVS369'
p1339
g11
sS'XMEN_FIRST_CLASS_DVS1171'
p1340
g11
sS'THE_SOCIAL_NETWORK_DVS68'
p1341
g9
sS'LARRY_CROWNE_DVS188'
p1342
g9
sS'SUPER_8_DVS561'
p1343
g11
sS'THIS_MEANS_WAR_DVS528'
p1344
g51
sS'SUPER_8_DVS569'
p1345
g41
sS'ROBIN_HOOD_DVS320'
p1346
g9
sS'TITANIC_1_DVS271'
p1347
g7
sS'TITANIC_1_DVS270'
p1348
g11
sS'TITANIC_1_DVS275'
p1349
g11
sS'TITANIC_1_DVS274'
p1350
g11
sS'TITANIC_1_DVS277'
p1351
g11
sS'TITANIC_1_DVS276'
p1352
g11
sS'BATTLE_LOS_ANGELES_DVS613'
p1353
g7
sS'FLIGHT_DVS29'
p1354
g11
sS'KARATE_KID_DVS1241'
p1355
g9
sS'THE_CALL_DVS1111'
p1356
g11
sS'GROWN_UPS_DVS166'
p1357
g11
sS'THE_ADVENTURES_OF_TINTIN_DVS199'
p1358
g11
sS'RUBY_SPARKS_DVS305'
p1359
g11
sS'SUPER_8_DVS491'
p1360
g11
sS'PROMETHEUS_DVS809'
p1361
g11
sS'SUPER_8_DVS494'
p1362
g11
sS'PROMETHEUS_DVS804'
p1363
g62
sS'PUBLIC_ENEMIES_DVS320'
p1364
g9
sS'DEAR_JOHN_DVS159'
p1365
g7
sS'THE_ADVENTURES_OF_TINTIN_DVS685'
p1366
g11
sS'SNOW_FLOWER_FD_DVS724'
p1367
g41
sS'SNOW_FLOWER_FD_DVS722'
p1368
g7
sS'THE_WATCH_DVS133'
p1369
g27
sS'COLOMBIANA_DVS610'
p1370
g34
sS'MORNING_GLORY_DVS398'
p1371
g17
sS'INSIDE_MAN_DVS46'
p1372
g7
sS'A_GOOD_DAY_TO_DIE_HARD_DVS727'
p1373
g11
sS'NANNY_MCPHEE_RETURNS_DVS205'
p1374
g34
sS'THE_GIRL_WITH_THE_DRAGON_TATTOO_DVS93'
p1375
g11
sS'LIFE_OF_PI_DVS675'
p1376
g2
sS'DEAR_JOHN_DVS307'
p1377
g11
sS'SUPER_8_DVS381'
p1378
g11
sS'PUBLIC_ENEMIES_DVS259'
p1379
g11
sS'JULIE_AND_JULIA_DVS462'
p1380
g17
sS'HUGO_DVS697'
p1381
g2
sS'THE_BOUNTY_HUNTER_DVS131'
p1382
g11
sS'HUGO_DVS691'
p1383
g11
sS'HUGO_DVS342'
p1384
g2
sS'A_GOOD_DAY_TO_DIE_HARD_DVS512'
p1385
g2
sS'A_GOOD_DAY_TO_DIE_HARD_DVS516'
p1386
g11
sS'THE_DESCENDANTS_DVS643'
p1387
g2
sS'THE_ADVENTURES_OF_TINTIN_DVS98'
p1388
g2
sS'DEAR_JOHN_DVS546'
p1389
g9
sS'SALT_DVS550'
p1390
g9
sS'BATTLE_LOS_ANGELES_DVS596'
p1391
g9
sS'SALT_DVS556'
p1392
g9
sS'GROWN_UPS_DVS182'
p1393
g11
sS'500DAYSOFSUMMER_DVS85'
p1394
g15
sS'500DAYSOFSUMMER_DVS84'
p1395
g17
sS'MORNING_GLORY_DVS388'
p1396
g27
sS'KATY_PERRY_PART_OF_ME_DVS117'
p1397
g27
sS'ITS_COMPLICATED_DVS16'
p1398
g41
sS'TOOTH_FAIRY_DVS623'
p1399
g2
sS'WE_BOUGHT_A_ZOO_DVS31'
p1400
g9
sS'TITANIC_2_DVS749'
p1401
g11
sS'HANSEL_GRETEL_WITCH_HUNTERS_DVS349'
p1402
g2
sS'THE_ART_OF_GETTING_BY_DVS185'
p1403
g9
sS'TITANIC_2_DVS743'
p1404
g9
sS'MORNING_GLORY_DVS378'
p1405
g11
sS'TITANIC_2_DVS745'
p1406
g2
sS'TITANIC_2_DVS747'
p1407
g11
sS'CHRONICLE_DVS66'
p1408
g7
sS'CHASING_MAVERICKS_DVS1005'
p1409
g2
sS'CHRONICLE_DVS65'
p1410
g7
sS'HUGO_DVS236'
p1411
g2
sS'ZOOKEEPER_DVS386'
p1412
g11
sS'21_JUMP_STREET_DVS427'
p1413
g11
sS'YOUNG_ADULT_DVS255'
p1414
g17
sS'A_GOOD_DAY_TO_DIE_HARD_DVS467'
p1415
g2
sS'THOR_DVS602'
p1416
g9
sS'MR_POPPERS_PENGUINS_DVS519'
p1417
g2
sS'40_YEAR_OLD_VIRGIN_DVS57'
p1418
g15
sS'ROBIN_HOOD_DVS507'
p1419
g27
sS'NO_STRINGS_ATTACHED_DVS379'
p1420
g9
sS'BATTLE_LOS_ANGELES_DVS374'
p1421
g17
sS'LIFE_OF_PI_DVS574'
p1422
g27
sS'JACK_AND_JILL_DVS395'
p1423
g9
sS'GHOST_RIDER_SPIRIT_OF_VENGEANCE_DVS438'
p1424
g11
sS'GHOST_RIDER_SPIRIT_OF_VENGEANCE_DVS439'
p1425
g62
sS'SORCERERS_APPRENTICE_DVS111'
p1426
g9
sS'FLIGHT_DVS145'
p1427
g11
sS'LIFE_OF_PI_DVS975'
p1428
g7
sS'A_GOOD_DAY_TO_DIE_HARD_DVS866'
p1429
g11
sS'ZOMBIELAND_DVS368'
p1430
g11
sS'THOR_DVS237'
p1431
g2
sS'ITS_COMPLICATED_DVS329'
p1432
g17
sS'IRON_MAN_2_DVS570'
p1433
g11
sS'DISTRICT_9_DVS267'
p1434
g258
sS'ZOMBIELAND_DVS366'
p1435
g11
sS'CAPTAIN_AMERICA_DVS46'
p1436
g9
sS'CAPTAIN_AMERICA_DVS40'
p1437
g2
sS'LIFE_OF_PI_DVS482'
p1438
g34
sS'ABRAHAM_LINCOLN_VAMPIRE_HUNTER_DVS218'
p1439
g17
sS'PARENTAL_GUIDANCE_DVS72'
p1440
g11
sS'LIFE_OF_PI_DVS220'
p1441
g27
sS'THE_BIG_YEAR_DVS35'
p1442
g51
sS'30_MINUTES_OR_LESS_DVS210'
p1443
g11
sS'WHATS_YOUR_NUMBER_DVS654'
p1444
g9
sS'JUST_GO_WITH_IT_DVS280'
p1445
g2
sS'JUST_GO_WITH_IT_DVS287'
p1446
g41
sS'LIFE_OF_PI_DVS806'
p1447
g9
sS'PERCY_JACKSON_LIGHTENING_THIEF_DVS171'
p1448
g2
sS'THOR_DVS425'
p1449
g17
sS'JUST_GO_WITH_IT_DVS347'
p1450
g7
sS'CHASING_MAVERICKS_DVS492'
p1451
g258
sS'NANNY_MCPHEE_RETURNS_DVS53'
p1452
g11
sS'CHASING_MAVERICKS_DVS494'
p1453
g9
sS'LIFE_OF_PI_DVS396'
p1454
g62
sS'A_THOUSAND_WORDS_DVS188'
p1455
g15
sS'IDES_OF_MARCH_DVS164'
p1456
g9
sS'CHARLIE_ST_CLOUD_DVS278'
p1457
g11
sS'BIG_MOMMAS_LIKE_FATHER_LIKE_SON_DVS212'
p1458
g11
sS'LIFE_OF_PI_DVS620'
p1459
g9
sS'BIG_MOMMAS_LIKE_FATHER_LIKE_SON_DVS215'
p1460
g11
sS'BIG_MOMMAS_LIKE_FATHER_LIKE_SON_DVS219'
p1461
g2
sS'THE_ROOMMATE_DVS295'
p1462
g11
sS'KARATE_KID_DVS1101'
p1463
g11
sS'KATY_PERRY_PART_OF_ME_DVS160'
p1464
g41
sS'ABRAHAM_LINCOLN_VAMPIRE_HUNTER_DVS565'
p1465
g228
sS'FLIGHT_DVS398'
p1466
g2
sS'KATY_PERRY_PART_OF_ME_DVS168'
p1467
g41
sS'XMEN_FIRST_CLASS_DVS604'
p1468
g11
sS'NO_STRINGS_ATTACHED_DVS553'
p1469
g11
sS'KARATE_KID_DVS474'
p1470
g9
sS'TITANIC_1_DVS92'
p1471
g2
sS'KARATE_KID_DVS472'
p1472
g62
sS'ITS_COMPLICATED_DVS136'
p1473
g9
sS'ITS_COMPLICATED_DVS134'
p1474
g9
sS'BURLESQUE_DVS260'
p1475
g11
sS'BURLESQUE_DVS127'
p1476
g2
sS'TITANIC_1_DVS197'
p1477
g11
sS'TITANIC_1_DVS193'
p1478
g51
sS'XMEN_FIRST_CLASS_DVS849'
p1479
g7
sS'A_THOUSAND_WORDS_DVS362'
p1480
g11
sS'TITANIC_1_DVS199'
p1481
g11
sS'COLOMBIANA_DVS513'
p1482
g2
sS'THE_ADVENTURES_OF_TINTIN_DVS368'
p1483
g51
sS'SUPER_8_DVS552'
p1484
g11
sS'SUPER_8_DVS555'
p1485
g9
sS'SUPER_8_DVS556'
p1486
g11
sS'THIS_MEANS_WAR_DVS511'
p1487
g11
sS'SOUL_SURFER_DVS181'
p1488
g11
sS'KARATE_KID_DVS509'
p1489
g2
sS'XMEN_FIRST_CLASS_DVS920'
p1490
g9
sS'BIG_MOMMAS_LIKE_FATHER_LIKE_SON_DVS528'
p1491
g11
sS'BATTLE_LOS_ANGELES_DVS609'
p1492
g11
sS'GREEN_ZONE_DVS125'
p1493
g11
sS'HOW_DO_YOU_KNOW_DVS680'
p1494
g9
sS'30_MINUTES_OR_LESS_DVS157'
p1495
g11
sS'JULIE_AND_JULIA_DVS219'
p1496
g11
sS'30_MINUTES_OR_LESS_DVS152'
p1497
g7
sS'WE_BOUGHT_A_ZOO_DVS806'
p1498
g9
sS'EASY_A_DVS154'
p1499
g17
sS'IRON_MAN_2_DVS318'
p1500
g11
sS'THE_ADVENTURES_OF_TINTIN_DVS188'
p1501
g2
sS'WE_BOUGHT_A_ZOO_DVS147'
p1502
g7
sS'PUBLIC_ENEMIES_DVS480'
p1503
g11
sS'PARENTAL_GUIDANCE_DVS426'
p1504
g9
sS'500DAYSOFSUMMER_DVS396'
p1505
g15
sS'500DAYSOFSUMMER_DVS397'
p1506
g15
sS'WE_BOUGHT_A_ZOO_DVS148'
p1507
g7
sS'500DAYSOFSUMMER_DVS395'
p1508
g11
sS'BIG_MOMMAS_LIKE_FATHER_LIKE_SON_DVS149'
p1509
g7
sS'GREEN_ZONE_DVS64'
p1510
g9
sS'HOW_DO_YOU_KNOW_DVS358'
p1511
g51
sS'JULIE_AND_JULIA_DVS450'
p1512
g9
sS'HOW_DO_YOU_KNOW_DVS353'
p1513
g9
sS'THE_GIRL_WITH_THE_DRAGON_TATTOO_DVS139'
p1514
g7
sS'THE_BIG_YEAR_DVS525'
p1515
g11
sS'SPARKLE_2012_DVS480'
p1516
g62
sS'SUPER_8_DVS601'
p1517
g11
sS'PUBLIC_ENEMIES_DVS261'
p1518
g11
sS'THE_GIRL_WITH_THE_DRAGON_TATTOO_DVS84'
p1519
g11
sS'THE_VOW_DVS283'
p1520
g27
sS'THE_GUILT_TRIP_DVS109'
p1521
g9
sS'DEAR_JOHN_DVS338'
p1522
g41
sS'THE_BOUNTY_HUNTER_DVS126'
p1523
g11
sS'SUPER_8_DVS401'
p1524
g11
sS'THE_VOW_DVS268'
p1525
g9
sS'THE_BIG_YEAR_DVS412'
p1526
g27
sS'IN_TIME_DVS249'
p1527
g2
sS'SNOW_FLOWER_FD_DVS1410'
p1528
g11
sS'DEAR_JOHN_DVS448'
p1529
g9
sS'INSIDE_MAN_DVS175'
p1530
g258
sS'BIG_MOMMAS_LIKE_FATHER_LIKE_SON_DVS46'
p1531
g27
sS'THE_DESCENDANTS_DVS383'
p1532
g11
sS'BURLESQUE_DVS677'
p1533
g9
sS'THE_GIRL_WITH_THE_DRAGON_TATTOO_DVS714'
p1534
g27
sS'SALT_DVS546'
p1535
g9
sS'500DAYSOFSUMMER_DVS98'
p1536
g15
sS'500DAYSOFSUMMER_DVS93'
p1537
g9
sS'THE_DESCENDANTS_DVS257'
p1538
g27
sS'MR_POPPERS_PENGUINS_DVS186'
p1539
g11
sS'MR_POPPERS_PENGUINS_DVS187'
p1540
g27
sS'A_GOOD_DAY_TO_DIE_HARD_DVS678'
p1541
g15
sS'MR_POPPERS_PENGUINS_DVS211'
p1542
g11
sS'CHRONICLE_DVS410'
p1543
g11
sS'UGLY_TRUTH_DVS557'
p1544
g7
sS'TOOTH_FAIRY_DVS706'
p1545
g27
sS'SALT_DVS430'
p1546
g51
sS'FRIENDS_WITH_BENEFITS_DVS43'
p1547
g41
sS'SALT_DVS434'
p1548
g11
sS'JUST_GO_WITH_IT_DVS113'
p1549
g11
sS'UGLY_TRUTH_DVS553'
p1550
g41
sS'BURLESQUE_DVS77'
p1551
g27
sS'MORNING_GLORY_DVS467'
p1552
g11
sS'ZOMBIELAND_DVS572'
p1553
g11
sS'HUGO_DVS224'
p1554
g7
sS'HUGO_DVS229'
p1555
g258
sS'TITANIC_2_DVS176'
p1556
g34
sS'HANSEL_GRETEL_WITCH_HUNTERS_DVS596'
p1557
g11
sS'FRIENDS_WITH_BENEFITS_DVS200'
p1558
g11
sS'THE_CALL_DVS203'
p1559
g17
sS'21_JUMP_STREET_DVS437'
p1560
g51
sS'THE_BOUNTY_HUNTER_DVS302'
p1561
g9
sS'MR_POPPERS_PENGUINS_DVS529'
p1562
g2
sS'SANCTUM_DVS113'
p1563
g2
sS'LIFE_OF_PI_DVS569'
p1564
g2
sS'ROBIN_HOOD_DVS511'
p1565
g11
sS'CAPTAIN_AMERICA_DVS282'
p1566
g11
sS'THE_CALL_DVS110'
p1567
g258
sS'CAPTAIN_AMERICA_DVS289'
p1568
g224
sS'THE_GIRL_WITH_THE_DRAGON_TATTOO_DVS1190'
p1569
g11
sS'GHOST_RIDER_SPIRIT_OF_VENGEANCE_DVS427'
p1570
g11
sS'CAPTAIN_AMERICA_DVS440'
p1571
g11
sS'CAPTAIN_AMERICA_DVS443'
p1572
g9
sS'CAPTAIN_AMERICA_DVS444'
p1573
g11
sS'CAPTAIN_AMERICA_DVS446'
p1574
g11
sS'ZOMBIELAND_DVS371'
p1575
g7
sS'DISTRICT_9_DVS272'
p1576
g11
sS'WE_BOUGHT_A_ZOO_DVS816'
p1577
g11
sS'ITS_COMPLICATED_DVS232'
p1578
g27
sS'ROBIN_HOOD_DVS56'
p1579
g258
sS'21_JUMP_STREET_DVS218'
p1580
g2
sS'CAPTAIN_AMERICA_DVS35'
p1581
g2
sS'CAPTAIN_AMERICA_DVS37'
p1582
g2
sS'CAPTAIN_AMERICA_DVS668'
p1583
g11
sS'YOUNG_ADULT_DVS119'
p1584
g17
sS'SANCTUM_DVS265'
p1585
g34
sS'YOUNG_ADULT_DVS111'
p1586
g9
sS'TITANIC_1_DVS261'
p1587
g51
sS'YOUNG_ADULT_DVS117'
p1588
g7
sS'SNOW_FLOWER_FD_DVS235'
p1589
g2
sS'LIFE_OF_PI_DVS700'
p1590
g34
sS'LIFE_OF_PI_DVS364'
p1591
g34
sS'LIFE_OF_PI_DVS811'
p1592
g9
sS'LIFE_OF_PI_DVS360'
p1593
g34
sS'ZOMBIELAND_DVS713'
p1594
g2
sS'SANCTUM_DVS249'
p1595
g34
sS'KARATE_KID_DVS1076'
p1596
g11
sS'CHASING_MAVERICKS_DVS487'
p1597
g41
sS'WHATS_YOUR_NUMBER_DVS462'
p1598
g62
sS'TRUE_GRIT_DVS521'
p1599
g17
sS'GHOST_RIDER_SPIRIT_OF_VENGEANCE_DVS549'
p1600
g11
sS'COLOMBIANA_DVS468'
p1601
g9
sS'LIFE_OF_PI_DVS144'
p1602
g258
sS'KARATE_KID_DVS866'
p1603
g27
sS'JACK_AND_JILL_DVS102'
p1604
g34
sS'A_THOUSAND_WORDS_DVS183'
p1605
g11
sS'HUGO_DVS805'
p1606
g2
sS'FLIGHT_DVS386'
p1607
g258
sS'KATY_PERRY_PART_OF_ME_DVS179'
p1608
g11
sS'WE_BOUGHT_A_ZOO_DVS335'
p1609
g11
sS'BURLESQUE_DVS276'
p1610
g2
sS'TITANIC_1_DVS187'
p1611
g7
sS'TITANIC_1_DVS183'
p1612
g2
sS'KARATE_KID_DVS1002'
p1613
g27
sS'THE_ADVENTURES_OF_TINTIN_DVS420'
p1614
g7
sS'KARATE_KID_DVS1009'
p1615
g27
sS'NANNY_MCPHEE_RETURNS_DVS477'
p1616
g11
sS'NANNY_MCPHEE_RETURNS_DVS473'
p1617
g11
sS'WE_BOUGHT_A_ZOO_DVS532'
p1618
g9
sS'BATTLE_LOS_ANGELES_DVS634'
p1619
g9
sS'BATTLE_LOS_ANGELES_DVS632'
p1620
g1314
sS'CHASING_MAVERICKS_DVS652'
p1621
g34
sS'COLOMBIANA_DVS677'
p1622
g803
sS'COLOMBIANA_DVS670'
p1623
g34
sS'BLINDDATING_DVS103'
p1624
g2
sS'HOW_DO_YOU_KNOW_DVS124'
p1625
g27
sS'UGLY_TRUTH_DVS510'
p1626
g7
sS'30_MINUTES_OR_LESS_DVS161'
p1627
g11
sS'RUBY_SPARKS_DVS327'
p1628
g2
sS'SALT_DVS157'
p1629
g11
sS'THIS_MEANS_WAR_DVS503'
p1630
g41
sS'500DAYSOFSUMMER_DVS380'
p1631
g41
sS'WE_BOUGHT_A_ZOO_DVS158'
p1632
g9
sS'KARATE_KID_DVS1399'
p1633
g11
sS'BIG_MOMMAS_LIKE_FATHER_LIKE_SON_DVS154'
p1634
g9
sS'DEAR_JOHN_DVS143'
p1635
g41
sS'PUBLIC_ENEMIES_DVS308'
p1636
g7
sS'JULIE_AND_JULIA_DVS334'
p1637
g9
sS'THE_ADVENTURES_OF_TINTIN_DVS645'
p1638
g2
sS'TRUE_GRIT_DVS421'
p1639
g27
sS'SUPER_8_DVS615'
p1640
g9
sS'MORNING_GLORY_DVS207'
p1641
g11
sS'SPARKLE_2012_DVS496'
p1642
g2
sS'SUPER_8_DVS619'
p1643
g41
sS'SUPER_8_DVS618'
p1644
g41
sS'THE_VOW_DVS294'
p1645
g9
sS'COLOMBIANA_DVS708'
p1646
g11
sS'GROWN_UPS_DVS174'
p1647
g11
sS'FLIGHT_DVS613'
p1648
g51
sS'MORNING_GLORY_DVS175'
p1649
g7
sS'TITANIC_1_DVS169'
p1650
g11
sS'THE_GIRL_WITH_THE_DRAGON_TATTOO_DVS652'
p1651
g9
sS'BIG_MOMMAS_LIKE_FATHER_LIKE_SON_DVS78'
p1652
g9
sS'THE_GIRL_WITH_THE_DRAGON_TATTOO_DVS870'
p1653
g9
sS'DEAR_JOHN_DVS456'
p1654
g11
sS'COLOMBIANA_DVS817'
p1655
g11
sS'COLOMBIANA_DVS816'
p1656
g318
sS'KARATE_KID_DVS1530'
p1657
g11
sS'CAPTAIN_AMERICA_DVS635'
p1658
g2
sS'HUGO_DVS223'
p1659
g9
sS'TITANIC_2_DVS616'
p1660
g11
sS'PARENTAL_GUIDANCE_DVS402'
p1661
g9
sS'DINNER_FOR_SCHMUCKS_DVS205'
p1662
g11
sS'MR_POPPERS_PENGUINS_DVS195'
p1663
g17
sS'IDES_OF_MARCH_DVS89'
p1664
g17
sS'THE_BIG_YEAR_DVS269'
p1665
g11
sS'HUGO_DVS780'
p1666
g41
sS'GHOST_RIDER_SPIRIT_OF_VENGEANCE_DVS602'
p1667
g9
sS'MR_POPPERS_PENGUINS_DVS201'
p1668
g27
sS'THE_DESCENDANTS_DVS533'
p1669
g9
sS'THINK_LIKE_A_MAN_DVS439'
p1670
g9
sS'THINK_LIKE_A_MAN_DVS432'
p1671
g9
sS'TITANIC_2_DVS764'
p1672
g11
sS'INSIDE_MAN_DVS387'
p1673
g2
sS'JUST_GO_WITH_IT_DVS108'
p1674
g11
sS'JUST_GO_WITH_IT_DVS104'
p1675
g11
sS'THE_ART_OF_GETTING_BY_DVS414'
p1676
g9
sS'30_MINUTES_OR_LESS_DVS69'
p1677
g34
sS'LARRY_CROWNE_DVS78'
p1678
g7
sS'HUGO_DVS680'
p1679
g2
sS'DISTRICT_9_DVS447'
p1680
g9
sS'SALT_DVS18'
p1681
g17
sS'HUGO_DVS258'
p1682
g11
sS'FRIENDS_WITH_BENEFITS_DVS278'
p1683
g2
sS'THE_CALL_DVS218'
p1684
g11
sS'TOOTH_FAIRY_DVS517'
p1685
g11
sS'TITANIC_2_DVS142'
p1686
g7
sS'WE_BOUGHT_A_ZOO_DVS824'
p1687
g9
sS'THE_CALL_DVS742'
p1688
g27
sS'THE_BOUNTY_HUNTER_DVS462'
p1689
g11
sS'ZOOKEEPER_DVS76'
p1690
g62
sS'IN_TIME_DVS188'
p1691
g11
sS'PARENTAL_GUIDANCE_DVS302'
p1692
g51
sS'ZOOKEEPER_DVS296'
p1693
g27
sS'CAPTAIN_AMERICA_DVS380'
p1694
g11
sS'COLOMBIANA_DVS995'
p1695
g51
sS'SORCERERS_APPRENTICE_DVS460'
p1696
g2
sS'THE_GIRL_WITH_THE_DRAGON_TATTOO_DVS1188'
p1697
g11
sS'30_MINUTES_OR_LESS_DVS266'
p1698
g17
sS'THE_GIRL_WITH_THE_DRAGON_TATTOO_DVS1187'
p1699
g11
sS'ROBIN_HOOD_DVS185'
p1700
g11
sS'THE_GIRL_WITH_THE_DRAGON_TATTOO_DVS1185'
p1701
g11
sS'HOW_DO_YOU_KNOW_DVS52'
p1702
g27
sS'A_GOOD_DAY_TO_DIE_HARD_DVS803'
p1703
g11
sS'PARENTAL_GUIDANCE_DVS239'
p1704
g11
sS'THE_DESCENDANTS_DVS721'
p1705
g17
sS'HOW_DO_YOU_KNOW_DVS55'
p1706
g17
sS'LIFE_OF_PI_DVS950'
p1707
g9
sS'ITS_COMPLICATED_DVS347'
p1708
g11
sS'BRUNO_DVS52'
p1709
g51
sS'KARATE_KID_DVS211'
p1710
g11
sS'KARATE_KID_DVS218'
p1711
g11
sS'IDES_OF_MARCH_DVS365'
p1712
g9
sS'GHOST_RIDER_SPIRIT_OF_VENGEANCE_DVS415'
p1713
g11
sS'COLOMBIANA_DVS386'
p1714
g2
sS'ROBIN_HOOD_DVS365'
p1715
g11
sS'COLOMBIANA_DVS382'
p1716
g803
sS'SANCTUM_DVS251'
p1717
g2
sS'SANCTUM_DVS255'
p1718
g2
sS'TITANIC_2_DVS31'
p1719
g11
sS'BATTLE_LOS_ANGELES_DVS384'
p1720
g11
sS'GHOST_RIDER_SPIRIT_OF_VENGEANCE_DVS564'
p1721
g62
sS'THE_BIG_YEAR_DVS293'
p1722
g27
sS'THE_BOUNTY_HUNTER_DVS510'
p1723
g11
sS'THE_BOUNTY_HUNTER_DVS511'
p1724
g2
sS'WHATS_YOUR_NUMBER_DVS679'
p1725
g11
sS'BATTLE_LOS_ANGELES_DVS285'
p1726
g27
sS'PERCY_JACKSON_LIGHTENING_THIEF_DVS154'
p1727
g9
sS'SANCTUM_DVS387'
p1728
g41
sS'SNOW_FLOWER_FD_DVS397'
p1729
g9
sS'CHARLIE_ST_CLOUD_DVS211'
p1730
g11
sS'BURLESQUE_DVS247'
p1731
g11
sS'BURLESQUE_DVS245'
p1732
g17
sS'A_THOUSAND_WORDS_DVS165'
p1733
g15
sS'GHOST_RIDER_SPIRIT_OF_VENGEANCE_DVS495'
p1734
g9
sS'WHATS_YOUR_NUMBER_DVS696'
p1735
g11
sS'CHASING_MAVERICKS_DVS261'
p1736
g7
sS'WHATS_YOUR_NUMBER_DVS453'
p1737
g2
sS'WHATS_YOUR_NUMBER_DVS450'
p1738
g2
sS'BIG_MOMMAS_LIKE_FATHER_LIKE_SON_DVS237'
p1739
g7
sS'CAPTAIN_AMERICA_DVS126'
p1740
g224
sS'CAPTAIN_AMERICA_DVS125'
p1741
g11
sS'FLIGHT_DVS371'
p1742
g2
sS'IN_TIME_DVS860'
p1743
g9
sS'BIG_MOMMAS_LIKE_FATHER_LIKE_SON_DVS303'
p1744
g62
sS'BIG_MOMMAS_LIKE_FATHER_LIKE_SON_DVS307'
p1745
g62
sS'WE_BOUGHT_A_ZOO_DVS301'
p1746
g11
sS'COLOMBIANA_DVS697'
p1747
g11
sS'THE_ROOMMATE_DVS324'
p1748
g9
sS'XMEN_FIRST_CLASS_DVS822'
p1749
g27
sS'PROMETHEUS_DVS1076'
p1750
g2
sS'IDES_OF_MARCH_DVS129'
p1751
g9
sS'ABRAHAM_LINCOLN_VAMPIRE_HUNTER_DVS388'
p1752
g62
sS'UGLY_TRUTH_DVS322'
p1753
g9
sS'WE_BOUGHT_A_ZOO_DVS786'
p1754
g9
sS'CHASING_MAVERICKS_DVS349'
p1755
g34
sS'CHASING_MAVERICKS_DVS347'
p1756
g51
sS'GET_HIM_TO_THE_GREEK_DVS140'
p1757
g17
sS'BIG_MOMMAS_LIKE_FATHER_LIKE_SON_DVS493'
p1758
g41
sS'COLOMBIANA_DVS663'
p1759
g9
sS'UGLY_TRUTH_DVS529'
p1760
g2
sS'BIG_MOMMAS_LIKE_FATHER_LIKE_SON_DVS499'
p1761
g9
sS'A_THOUSAND_WORDS_DVS238'
p1762
g11
sS'THIS_MEANS_WAR_DVS150'
p1763
g51
sS'EASY_A_DVS175'
p1764
g41
sS'EASY_A_DVS174'
p1765
g41
sS'DEATH_AT_A_FUNERAL_DVS285'
p1766
g41
sS'NANNY_MCPHEE_RETURNS_DVS215'
p1767
g11
sS'EASY_A_DVS178'
p1768
g41
sS'KARATE_KID_DVS1386'
p1769
g7
sS'RUBY_SPARKS_DVS245'
p1770
g7
sS'PUBLIC_ENEMIES_DVS466'
p1771
g258
sS'KARATE_KID_DVS1389'
p1772
g11
sS'GHOST_RIDER_SPIRIT_OF_VENGEANCE_DVS62'
p1773
g9
sS'JULIE_AND_JULIA_DVS123'
p1774
g17
sS'PROMETHEUS_DVS838'
p1775
g9
sS'MORNING_GLORY_DVS166'
p1776
g27
sS'THE_CALL_DVS1096'
p1777
g11
sS'THE_ADVENTURES_OF_TINTIN_DVS656'
p1778
g27
sS'THE_GUILT_TRIP_DVS279'
p1779
g2
sS'SPARKLE_2012_DVS314'
p1780
g9
sS'GREEN_ZONE_DVS96'
p1781
g9
sS'SPARKLE_2012_DVS310'
p1782
g41
sS'SALT_DVS217'
p1783
g11
sS'40_YEAR_OLD_VIRGIN_DVS177'
p1784
g27
sS'PUBLIC_ENEMIES_DVS208'
p1785
g11
sS'TITANIC_1_DVS407'
p1786
g258
sS'TITANIC_1_DVS404'
p1787
g62
sS'TITANIC_1_DVS409'
p1788
g258
sS'LIFE_OF_PI_DVS1005'
p1789
g2
sS'LIFE_OF_PI_DVS1007'
p1790
g51
sS'COLOMBIANA_DVS718'
p1791
g9
sS'SNOW_FLOWER_FD_DVS603'
p1792
g11
sS'COLOMBIANA_DVS710'
p1793
g2
sS'JULIE_AND_JULIA_DVS475'
p1794
g9
sS'KARATE_KID_DVS1633'
p1795
g51
sS'LIFE_OF_PI_DVS816'
p1796
g34
sS'MORNING_GLORY_DVS298'
p1797
g9
sS'BIG_MOMMAS_LIKE_FATHER_LIKE_SON_DVS69'
p1798
g1314
sS'LAND_OF_THE_LOST_DVS128'
p1799
g27
sS'GHOST_RIDER_SPIRIT_OF_VENGEANCE_DVS82'
p1800
g11
sS'THE_BIG_YEAR_DVS387'
p1801
g51
sS'GHOST_RIDER_SPIRIT_OF_VENGEANCE_DVS81'
p1802
g11
sS'CHASING_MAVERICKS_DVS46'
p1803
g9
sS'SUPER_8_DVS83'
p1804
g9
sS'DEAR_JOHN_DVS265'
p1805
g9
sS'DEAR_JOHN_DVS593'
p1806
g11
sS'CHASING_MAVERICKS_DVS49'
p1807
g11
sS'TITANIC_2_DVS605'
p1808
g11
sS'DINNER_FOR_SCHMUCKS_DVS212'
p1809
g9
sS'21_JUMP_STREET_DVS473'
p1810
g62
sS'JUST_GO_WITH_IT_DVS131'
p1811
g34
sS'IN_TIME_DVS467'
p1812
g11
sS'GET_HIM_TO_THE_GREEK_DVS17'
p1813
g17
sS'HANSEL_GRETEL_WITCH_HUNTERS_DVS201'
p1814
g2
sS'SPARKLE_2012_DVS171'
p1815
g7
sS'SPARKLE_2012_DVS170'
p1816
g7
sS'INSIDE_MAN_DVS398'
p1817
g9
sS'THE_DESCENDANTS_DVS634'
p1818
g2
sS'COLOMBIANA_DVS1050'
p1819
g27
sS'CHARLIE_ST_CLOUD_DVS96'
p1820
g17
sS'THE_ART_OF_GETTING_BY_DVS131'
p1821
g9
sS'CHRONICLE_DVS531'
p1822
g51
sS'CHARLIE_ST_CLOUD_DVS75'
p1823
g2
sS'MR_POPPERS_PENGUINS_DVS308'
p1824
g11
sS'CHARLIE_ST_CLOUD_DVS185'
p1825
g2
sS'ZOOKEEPER_DVS351'
p1826
g17
sS'PARENTAL_GUIDANCE_DVS229'
p1827
g11
sS'MR_POPPERS_PENGUINS_DVS236'
p1828
g7
sS'IN_TIME_DVS190'
p1829
g7
sS'PUBLIC_ENEMIES_DVS86'
p1830
g2
sS'21_JUMP_STREET_DVS582'
p1831
g11
sS'PUBLIC_ENEMIES_DVS85'
p1832
g11
sS'21_JUMP_STREET_DVS345'
p1833
g11
sS'21_JUMP_STREET_DVS348'
p1834
g7
sS'THE_BOUNTY_HUNTER_DVS73'
p1835
g41
sS'THE_CALL_DVS172'
p1836
g17
sS'THINK_LIKE_A_MAN_DVS369'
p1837
g11
sS'CAPTAIN_AMERICA_DVS265'
p1838
g11
sS'ROBIN_HOOD_DVS195'
p1839
g7
sS'YOUNG_ADULT_DVS229'
p1840
g41
sS'CINDERELLA_MAN_DVS225'
p1841
g11
sS'HANSEL_GRETEL_WITCH_HUNTERS_DVS559'
p1842
g11
sS'SALT_DVS25'
p1843
g41
sS'HANSEL_GRETEL_WITCH_HUNTERS_DVS554'
p1844
g11
sS'ITS_COMPLICATED_DVS219'
p1845
g2
sS'IRON_MAN_2_DVS237'
p1846
g11
sS'SANCTUM_DVS483'
p1847
g9
sS'ITS_COMPLICATED_DVS210'
p1848
g41
sS'KARATE_KID_DVS208'
p1849
g11
sS'IDES_OF_MARCH_DVS373'
p1850
g7
sS'BRUNO_DVS47'
p1851
g11
sS'TRUE_GRIT_DVS308'
p1852
g51
sS'ZOOKEEPER_DVS132'
p1853
g51
sS'HUGO_DVS803'
p1854
g11
sS'THE_BIG_YEAR_DVS69'
p1855
g11
sS'GHOST_RIDER_SPIRIT_OF_VENGEANCE_DVS577'
p1856
g62
sS'PERCY_JACKSON_LIGHTENING_THIEF_DVS148'
p1857
g7
sS'LIFE_OF_PI_DVS831'
p1858
g34
sS'HUGO_DVS676'
p1859
g11
sS'LIFE_OF_PI_DVS835'
p1860
g34
sS'ZOMBIELAND_DVS732'
p1861
g2
sS'CAPTAIN_AMERICA_DVS123'
p1862
g224
sS'WE_BOUGHT_A_ZOO_DVS310'
p1863
g2
sS'WHATS_YOUR_NUMBER_DVS683'
p1864
g7
sS'DISTRICT_9_DVS831'
p1865
g2
sS'ABRAHAM_LINCOLN_VAMPIRE_HUNTER_DVS627'
p1866
g11
sS'FLIGHT_DVS94'
p1867
g2
sS'CAPTAIN_AMERICA_DVS134'
p1868
g51
sS'TITANIC_2_DVS721'
p1869
g11
sS'CAPTAIN_AMERICA_DVS647'
p1870
g7
sS'FLIGHT_DVS363'
p1871
g11
sS'CAPTAIN_AMERICA_DVS644'
p1872
g11
sS'DEAR_JOHN_DVS27'
p1873
g34
sS'PARENTAL_GUIDANCE_DVS29'
p1874
g41
sS'CAPTAIN_AMERICA_DVS138'
p1875
g41
sS'TITANIC_1_DVS85'
p1876
g11
sS'THE_WATCH_DVS225'
p1877
g7
sS'THOR_DVS502'
p1878
g11
sS'IRON_MAN_2_DVS656'
p1879
g11
sS'XMEN_FIRST_CLASS_DVS639'
p1880
g9
sS'TITANIC_1_DVS89'
p1881
g11
sS'THOR_DVS504'
p1882
g11
sS'THE_ROOMMATE_DVS316'
p1883
g9
sS'GREEN_ZONE_DVS177'
p1884
g9
sS'THE_ROOMMATE_DVS312'
p1885
g11
sS'SUPER_8_DVS521'
p1886
g11
sS'SUPER_8_DVS524'
p1887
g11
sS'LIFE_OF_PI_DVS706'
p1888
g2
sS'UGLY_TRUTH_DVS339'
p1889
g9
sS'A_THOUSAND_WORDS_DVS339'
p1890
g62
sS'THE_WATCH_DVS359'
p1891
g11
sS'THE_WATCH_DVS433'
p1892
g17
sS'BIG_MOMMAS_LIKE_FATHER_LIKE_SON_DVS557'
p1893
g41
sS'SANCTUM_DVS261'
p1894
g34
sS'CAPTAIN_AMERICA_DVS664'
p1895
g9
sS'XMEN_FIRST_CLASS_DVS1335'
p1896
g2
sS'THIS_MEANS_WAR_DVS367'
p1897
g17
sS'CAPTAIN_AMERICA_DVS667'
p1898
g11
sS'NANNY_MCPHEE_RETURNS_DVS418'
p1899
g9
sS'TITANIC_1_DVS235'
p1900
g11
sS'TITANIC_1_DVS230'
p1901
g2
sS'A_THOUSAND_WORDS_DVS201'
p1902
g2
sS'SUPER_8_DVS294'
p1903
g11
sS'30_MINUTES_OR_LESS_DVS344'
p1904
g258
sS'30_MINUTES_OR_LESS_DVS340'
p1905
g9
sS'30_MINUTES_OR_LESS_DVS181'
p1906
g17
sS'JUST_GO_WITH_IT_DVS28'
p1907
g17
sS'NANNY_MCPHEE_RETURNS_DVS327'
p1908
g258
sS'UGLY_TRUTH_DVS535'
p1909
g11
sS'HUGO_DVS23'
p1910
g11
sS'UGLY_TRUTH_DVS539'
p1911
g62
sS'JULIE_AND_JULIA_DVS228'
p1912
g41
sS'IRON_MAN_2_DVS325'
p1913
g11
sS'PROMETHEUS_DVS730'
p1914
g11
sS'IRON_MAN_2_DVS434'
p1915
g27
sS'NANNY_MCPHEE_RETURNS_DVS80'
p1916
g11
sS'TITANIC_2_DVS706'
p1917
g9
sS'PUBLIC_ENEMIES_DVS473'
p1918
g11
sS'KNOCKED_UP_DVS151'
p1919
g17
sS'XMEN_FIRST_CLASS_DVS1029'
p1920
g17
sS'KNOCKED_UP_DVS154'
p1921
g9
sS'THOR_DVS29'
p1922
g9
sS'KNOCKED_UP_DVS158'
p1923
g11
s.