(dp0
S'KARATE_KID_DVS1602'
p1
S'annotated'
p2
sS'DINNER_FOR_SCHMUCKS_DVS429'
p3
g2
sS'KARATE_KID_DVS1607'
p4
g2
sS'DINNER_FOR_SCHMUCKS_DVS350'
p5
g2
sS'KARATE_KID_DVS1609'
p6
S'annotated'
p7
sS'DEATH_AT_A_FUNERAL_DVS228'
p8
S'annotated'
p9
sS'PROMETHEUS_DVS357'
p10
S'annotated'
p11
sS'LITTLE_FOCKERS_DVS243'
p12
g9
sS'THE_VOW_DVS478'
p13
g11
sS'500DAYSOFSUMMER_DVS526'
p14
S'annotated'
p15
sS'SPARKLE_2012_DVS547'
p16
S'annotated'
p17
sS'GREEN_ZONE_DVS309'
p18
g11
sS'THE_SOCIAL_NETWORK_DVS157'
p19
g9
sS'BATTLE_LOS_ANGELES_DVS83'
p20
g9
sS'BRUNO_DVS188'
p21
g2
sS'500DAYSOFSUMMER_DVS46'
p22
g7
sS'THE_GIRL_WITH_THE_DRAGON_TATTOO_DVS851'
p23
g2
sS'DEAR_JOHN_DVS70'
p24
g9
sS'DEAR_JOHN_DVS71'
p25
g17
sS'THE_GIRL_WITH_THE_DRAGON_TATTOO_DVS672'
p26
S'annotated'
p27
sS'INSIDE_MAN_DVS80'
p28
g27
sS'SPARKLE_2012_DVS300'
p29
g9
sS'PUBLIC_ENEMIES_DVS505'
p30
g9
sS'THOR_DVS558'
p31
g11
sS'DEAR_JOHN_DVS274'
p32
g9
sS'THIS_MEANS_WAR_DVS68'
p33
S'annotated'
p34
sS'DINNER_FOR_SCHMUCKS_DVS221'
p35
g11
sS'JUST_GO_WITH_IT_DVS125'
p36
g2
sS'IN_TIME_DVS453'
p37
g2
sS'JUST_GO_WITH_IT_DVS128'
p38
g27
sS'WHATS_YOUR_NUMBER_DVS463'
p39
g34
sS'WHATS_YOUR_NUMBER_DVS99'
p40
S'annotated'
p41
sS'DEAR_JOHN_DVS475'
p42
g11
sS'COLOMBIANA_DVS906'
p43
g27
sS'DEAR_JOHN_DVS476'
p44
S'annotated'
p45
sS'BURLESQUE_DVS536'
p46
S'annotated'
p47
sS'THE_ART_OF_GETTING_BY_DVS303'
p48
g11
sS'THE_ART_OF_GETTING_BY_DVS300'
p49
g2
sS'THE_DESCENDANTS_DVS602'
p50
g2
sS'MORNING_GLORY_DVS337'
p51
S'annotated'
p52
sS'HUGO_DVS301'
p53
g2
sS'THE_GIRL_WITH_THE_DRAGON_TATTOO_DVS694'
p54
g9
sS'THE_GIRL_WITH_THE_DRAGON_TATTOO_DVS695'
p55
g9
sS'THE_CALL_DVS901'
p56
g2
sS'PARENTAL_GUIDANCE_DVS327'
p57
g27
sS'CHASING_MAVERICKS_DVS327'
p58
g27
sS'CHARLIE_ST_CLOUD_DVS40'
p59
g11
sS'CHARLIE_ST_CLOUD_DVS43'
p60
g52
sS'A_GOOD_DAY_TO_DIE_HARD_DVS738'
p61
g7
sS'THOR_DVS644'
p62
S'annotated'
p63
sS'TOOTH_FAIRY_DVS572'
p64
g17
sS'THOR_DVS641'
p65
g63
sS'THE_BIG_YEAR_DVS236'
p66
g2
sS'ITS_COMPLICATED_DVS59'
p67
g11
sS'ITS_COMPLICATED_DVS360'
p68
g17
sS'BAD_TEACHER_DVS287'
p69
g2
sS'SANCTUM_DVS121'
p70
g2
sS'A_GOOD_DAY_TO_DIE_HARD_DVS821'
p71
g11
sS'TITANIC_2_DVS235'
p72
g11
sS'NO_STRINGS_ATTACHED_DVS330'
p73
g11
sS'TITANIC_2_DVS239'
p74
g11
sS'YOUNG_ADULT_DVS367'
p75
g2
sS'YOUNG_ADULT_DVS360'
p76
g11
sS'YOUNG_ADULT_DVS362'
p77
g9
sS'ZOOKEEPER_DVS343'
p78
g9
sS'YOUNG_ADULT_DVS216'
p79
g27
sS'PARENTAL_GUIDANCE_DVS213'
p80
g11
sS'HANSEL_GRETEL_WITCH_HUNTERS_DVS528'
p81
g11
sS'BLINDDATING_DVS20'
p82
g17
sS'BLINDDATING_DVS28'
p83
g17
sS'IN_TIME_DVS256'
p84
g9
sS'EASY_A_DVS90'
p85
g52
sS'THE_VOW_DVS62'
p86
g17
sS'HOW_DO_YOU_KNOW_DVS97'
p87
g63
sS'SANCTUM_DVS237'
p88
g34
sS'TRUE_GRIT_DVS225'
p89
g2
sS'ZOMBIELAND_DVS581'
p90
g63
sS'THE_BOUNTY_HUNTER_DVS539'
p91
g7
sS'GHOST_RIDER_SPIRIT_OF_VENGEANCE_DVS503'
p92
g9
sS'JACK_AND_JILL_DVS84'
p93
g7
sS'GHOST_RIDER_SPIRIT_OF_VENGEANCE_DVS504'
p94
g9
sS'THE_BIG_YEAR_DVS72'
p95
g11
sS'A_GOOD_DAY_TO_DIE_HARD_DVS917'
p96
g34
sS'CHARLIE_ST_CLOUD_DVS151'
p97
g27
sS'CINDERELLA_MAN_DVS61'
p98
g11
sS'CINDERELLA_MAN_DVS67'
p99
g52
sS'CHARLIE_ST_CLOUD_DVS159'
p100
g9
sS'21_JUMP_STREET_DVS150'
p101
S'annotated'
p102
sS'SNOW_FLOWER_FD_DVS377'
p103
g9
sS'BAD_TEACHER_DVS133'
p104
g52
sS'SNOW_FLOWER_FD_DVS373'
p105
g2
sS'A_THOUSAND_WORDS_DVS146'
p106
g15
sS'A_THOUSAND_WORDS_DVS147'
p107
g11
sS'A_THOUSAND_WORDS_DVS144'
p108
g15
sS'A_THOUSAND_WORDS_DVS145'
p109
g2
sS'A_THOUSAND_WORDS_DVS140'
p110
g9
sS'ABRAHAM_LINCOLN_VAMPIRE_HUNTER_DVS635'
p111
g11
sS'ABRAHAM_LINCOLN_VAMPIRE_HUNTER_DVS632'
p112
g63
sS'GHOST_RIDER_SPIRIT_OF_VENGEANCE_DVS216'
p113
S'annotated'
p114
sS'WHATS_YOUR_NUMBER_DVS239'
p115
g27
sS'THE_ROOMMATE_DVS126'
p116
g11
sS'GHOST_RIDER_SPIRIT_OF_VENGEANCE_DVS186'
p117
g63
sS'GHOST_RIDER_SPIRIT_OF_VENGEANCE_DVS185'
p118
g11
sS'GHOST_RIDER_SPIRIT_OF_VENGEANCE_DVS182'
p119
g11
sS'TITANIC_1_DVS98'
p120
g9
sS'THOR_DVS517'
p121
g63
sS'SUPER_8_DVS510'
p122
g11
sS'SUPER_8_DVS511'
p123
g11
sS'SUPER_8_DVS513'
p124
g11
sS'XMEN_FIRST_CLASS_DVS1302'
p125
g11
sS'A_THOUSAND_WORDS_DVS325'
p126
g27
sS'BIG_MOMMAS_LIKE_FATHER_LIKE_SON_DVS368'
p127
g41
sS'THE_SITTER_DVS119'
p128
g9
sS'KARATE_KID_DVS946'
p129
g11
sS'BIG_MOMMAS_LIKE_FATHER_LIKE_SON_DVS568'
p130
g7
sS'BIG_MOMMAS_LIKE_FATHER_LIKE_SON_DVS565'
p131
g27
sS'KARATE_KID_DVS789'
p132
g27
sS'KARATE_KID_DVS788'
p133
g7
sS'THE_DESCENDANTS_DVS797'
p134
g9
sS'RUBY_SPARKS_DVS427'
p135
g27
sS'KARATE_KID_DVS548'
p136
g17
sS'A_THOUSAND_WORDS_DVS218'
p137
g17
sS'COLOMBIANA_DVS645'
p138
g9
sS'GET_HIM_TO_THE_GREEK_DVS129'
p139
g17
sS'RUBY_SPARKS_DVS192'
p140
g11
sS'HUGO_DVS58'
p141
g11
sS'HUGO_DVS59'
p142
g63
sS'HUGO_DVS57'
p143
g11
sS'JUST_GO_WITH_IT_DVS30'
p144
g41
sS'HUGO_DVS55'
p145
g11
sS'PUBLIC_ENEMIES_DVS198'
p146
g27
sS'TITANIC_1_DVS397'
p147
g2
sS'THE_ADVENTURES_OF_TINTIN_DVS417'
p148
g11
sS'DEAR_JOHN_DVS118'
p149
g34
sS'BIG_MOMMAS_LIKE_FATHER_LIKE_SON_DVS100'
p150
g27
sS'BIG_MOMMAS_LIKE_FATHER_LIKE_SON_DVS104'
p151
g52
sS'BIG_MOMMAS_LIKE_FATHER_LIKE_SON_DVS587'
p152
g11
sS'THE_ADVENTURES_OF_TINTIN_DVS675'
p153
g2
sS'MORNING_GLORY_DVS107'
p154
g9
sS'COLOMBIANA_DVS737'
p155
g52
sS'THE_GIRL_WITH_THE_DRAGON_TATTOO_DVS1421'
p156
g9
sS'CHASING_MAVERICKS_DVS752'
p157
g11
sS'HOW_DO_YOU_KNOW_DVS390'
p158
g11
sS'NANNY_MCPHEE_RETURNS_DVS339'
p159
g17
sS'TITANIC_1_DVS172'
p160
g9
sS'TITANIC_1_DVS173'
p161
g11
sS'NANNY_MCPHEE_RETURNS_DVS337'
p162
g11
sS'UGLY_TRUTH_DVS495'
p163
g7
sS'UGLY_TRUTH_DVS492'
p164
g41
sS'A_THOUSAND_WORDS_DVS453'
p165
g17
sS'40_YEAR_OLD_VIRGIN_DVS111'
p166
g9
sS'JULIE_AND_JULIA_DVS564'
p167
g41
sS'LAND_OF_THE_LOST_DVS148'
p168
g7
sS'SPARKLE_2012_DVS56'
p169
g9
sS'THE_GIRL_WITH_THE_DRAGON_TATTOO_DVS662'
p170
g11
sS'500DAYSOFSUMMER_DVS177'
p171
g15
sS'PUBLIC_ENEMIES_DVS539'
p172
g9
sS'LITTLE_FOCKERS_DVS224'
p173
g41
sS'DEAR_JOHN_DVS246'
p174
g11
sS'30_MINUTES_OR_LESS_DVS313'
p175
g11
sS'GREEN_ZONE_DVS207'
p176
g9
sS'MORNING_GLORY_DVS81'
p177
g52
sS'MORNING_GLORY_DVS85'
p178
g11
sS'TOOTH_FAIRY_DVS123'
p179
g2
sS'TITANIC_2_DVS481'
p180
g7
sS'THE_GIRL_WITH_THE_DRAGON_TATTOO_DVS64'
p181
g11
sS'IN_TIME_DVS448'
p182
g2
sS'MR_POPPERS_PENGUINS_DVS140'
p183
g27
sS'THE_ART_OF_GETTING_BY_DVS201'
p184
g2
sS'THE_CALL_DVS573'
p185
g2
sS'CINDERELLA_MAN_DVS419'
p186
g17
sS'THINK_LIKE_A_MAN_DVS392'
p187
g41
sS'TOOTH_FAIRY_DVS185'
p188
g9
sS'THE_DESCENDANTS_DVS348'
p189
g7
sS'IN_TIME_DVS201'
p190
g9
sS'THINK_LIKE_A_MAN_DVS408'
p191
g2
sS'HUGO_DVS460'
p192
g9
sS'HUGO_DVS467'
p193
g17
sS'TITANIC_2_DVS139'
p194
g11
sS'MR_POPPERS_PENGUINS_DVS493'
p195
g2
sS'FRIENDS_WITH_BENEFITS_DVS249'
p196
g2
sS'THE_ART_OF_GETTING_BY_DVS115'
p197
g9
sS'THE_ART_OF_GETTING_BY_DVS112'
p198
g27
sS'A_GOOD_DAY_TO_DIE_HARD_DVS54'
p199
g15
sS'THE_CALL_DVS484'
p200
g9
sS'THE_BOUNTY_HUNTER_DVS189'
p201
g27
sS'ABRAHAM_LINCOLN_VAMPIRE_HUNTER_DVS68'
p202
g9
sS'ITS_COMPLICATED_DVS399'
p203
g27
sS'THE_VOW_DVS52'
p204
g9
sS'FLIGHT_DVS139'
p205
g2
sS'TRUE_GRIT_DVS141'
p206
g34
sS'THIS_MEANS_WAR_DVS183'
p207
g9
sS'IDES_OF_MARCH_DVS34'
p208
g7
sS'THE_BOUNTY_HUNTER_DVS253'
p209
g27
sS'COLOMBIANA_DVS497'
p210
g11
sS'THOR_DVS189'
p211
g63
sS'BATTLE_LOS_ANGELES_DVS250'
p212
g41
sS'A_THOUSAND_WORDS_DVS225'
p213
g17
sS'COLOMBIANA_DVS134'
p214
g17
sS'SANCTUM_DVS223'
p215
g2
sS'BURLESQUE_DVS383'
p216
g27
sS'TRUE_GRIT_DVS496'
p217
g9
sS'CHASING_MAVERICKS_DVS117'
p218
g11
sS'LIFE_OF_PI_DVS987'
p219
g34
sS'ZOMBIELAND_DVS224'
p220
g27
sS'GHOST_RIDER_SPIRIT_OF_VENGEANCE_DVS516'
p221
g11
sS'SNOW_FLOWER_FD_DVS964'
p222
g11
sS'CHARLIE_ST_CLOUD_DVS140'
p223
g11
sS'JUST_GO_WITH_IT_DVS258'
p224
g27
sS'ITS_COMPLICATED_DVS163'
p225
g17
sS'THINK_LIKE_A_MAN_DVS384'
p226
g2
sS'KARATE_KID_DVS319'
p227
g9
sS'CHASING_MAVERICKS_DVS200'
p228
S'annotated'
p229
sS'CAPTAIN_AMERICA_DVS584'
p230
g229
sS'TRUE_GRIT_DVS560'
p231
g2
sS'THE_ART_OF_GETTING_BY_DVS308'
p232
g9
sS'LIFE_OF_PI_DVS676'
p233
g34
sS'A_THOUSAND_WORDS_DVS138'
p234
g2
sS'ABRAHAM_LINCOLN_VAMPIRE_HUNTER_DVS604'
p235
g2
sS'ABRAHAM_LINCOLN_VAMPIRE_HUNTER_DVS287'
p236
g2
sS'ABRAHAM_LINCOLN_VAMPIRE_HUNTER_DVS286'
p237
g11
sS'CAPTAIN_AMERICA_DVS113'
p238
g2
sS'THE_ROOMMATE_DVS158'
p239
g11
sS'GHOST_RIDER_SPIRIT_OF_VENGEANCE_DVS191'
p240
g27
sS'40_YEAR_OLD_VIRGIN_DVS222'
p241
g2
sS'KATY_PERRY_PART_OF_ME_DVS139'
p242
g11
sS'THOR_DVS526'
p243
g63
sS'THOR_DVS523'
p244
g11
sS'COLOMBIANA_DVS221'
p245
g9
sS'LIFE_OF_PI_DVS270'
p246
g2
sS'TITANIC_2_DVS660'
p247
g7
sS'SUPER_8_DVS507'
p248
g11
sS'SUPER_8_DVS505'
p249
g52
sS'SUPER_8_DVS509'
p250
g52
sS'XMEN_FIRST_CLASS_DVS1316'
p251
g9
sS'ABRAHAM_LINCOLN_VAMPIRE_HUNTER_DVS516'
p252
g11
sS'XMEN_FIRST_CLASS_DVS926'
p253
g17
sS'ABRAHAM_LINCOLN_VAMPIRE_HUNTER_DVS462'
p254
g9
sS'KARATE_KID_DVS820'
p255
g9
sS'WE_BOUGHT_A_ZOO_DVS803'
p256
g17
sS'BIG_MOMMAS_LIKE_FATHER_LIKE_SON_DVS572'
p257
g9
sS'BIG_MOMMAS_LIKE_FATHER_LIKE_SON_DVS576'
p258
g11
sS'WE_BOUGHT_A_ZOO_DVS772'
p259
g11
sS'THE_WATCH_DVS373'
p260
g9
sS'KARATE_KID_DVS552'
p261
S'annotated'
p262
sS'WE_BOUGHT_A_ZOO_DVS571'
p263
g9
sS'30_MINUTES_OR_LESS_DVS323'
p264
g41
sS'WE_BOUGHT_A_ZOO_DVS157'
p265
g7
sS'A_THOUSAND_WORDS_DVS264'
p266
g2
sS'THE_WATCH_DVS559'
p267
g52
sS'THE_BOUNTY_HUNTER_DVS57'
p268
g9
sS'UGLY_TRUTH_DVS554'
p269
g2
sS'WE_BOUGHT_A_ZOO_DVS596'
p270
g9
sS'LITTLE_FOCKERS_DVS41'
p271
g27
sS'SALT_DVS117'
p272
g9
sS'UGLY_TRUTH_DVS551'
p273
g41
sS'GET_HIM_TO_THE_GREEK_DVS111'
p274
g7
sS'NANNY_MCPHEE_RETURNS_DVS185'
p275
g11
sS'BLINDDATING_DVS148'
p276
g9
sS'TITANIC_1_DVS387'
p277
g34
sS'UGLY_TRUTH_DVS313'
p278
g7
sS'TITANIC_1_DVS381'
p279
g11
sS'TITANIC_1_DVS382'
p280
g63
sS'KATY_PERRY_PART_OF_ME_DVS245'
p281
g63
sS'THIS_MEANS_WAR_DVS232'
p282
g11
sS'BIG_MOMMAS_LIKE_FATHER_LIKE_SON_DVS119'
p283
g52
sS'500DAYSOFSUMMER_DVS349'
p284
g7
sS'THE_GIRL_WITH_THE_DRAGON_TATTOO_DVS699'
p285
g2
sS'THE_WATCH_DVS159'
p286
g11
sS'BATTLE_LOS_ANGELES_DVS409'
p287
g11
sS'GREEN_ZONE_DVS364'
p288
g11
sS'BIG_MOMMAS_LIKE_FATHER_LIKE_SON_DVS596'
p289
g2
sS'KARATE_KID_DVS1370'
p290
g7
sS'KARATE_KID_DVS1372'
p291
g7
sS'MORNING_GLORY_DVS132'
p292
g17
sS'DINNER_FOR_SCHMUCKS_DVS401'
p293
g41
sS'HOW_DO_YOU_KNOW_DVS540'
p294
g9
sS'HOW_DO_YOU_KNOW_DVS388'
p295
g9
sS'TITANIC_1_DVS504'
p296
g2
sS'PROMETHEUS_DVS971'
p297
g11
sS'WHATS_YOUR_NUMBER_DVS716'
p298
g11
sS'TITANIC_1_DVS165'
p299
g2
sS'SPARKLE_2012_DVS566'
p300
g41
sS'BIG_MOMMAS_LIKE_FATHER_LIKE_SON_DVS603'
p301
g11
sS'BIG_MOMMAS_LIKE_FATHER_LIKE_SON_DVS609'
p302
g11
sS'LAND_OF_THE_LOST_DVS171'
p303
g7
sS'500DAYSOFSUMMER_DVS66'
p304
g41
sS'500DAYSOFSUMMER_DVS65'
p305
g15
sS'THE_GIRL_WITH_THE_DRAGON_TATTOO_DVS836'
p306
g9
sS'SPARKLE_2012_DVS364'
p307
g27
sS'KARATE_KID_DVS1091'
p308
g9
sS'SNOW_FLOWER_FD_DVS1202'
p309
g7
sS'TOOTH_FAIRY_DVS673'
p310
g2
sS'IN_TIME_DVS523'
p311
g11
sS'DEATH_AT_A_FUNERAL_DVS253'
p312
g9
sS'THE_ADVENTURES_OF_TINTIN_DVS283'
p313
g11
sS'THE_VOW_DVS129'
p314
g27
sS'TITANIC_2_DVS124'
p315
g11
sS'THE_CALL_DVS886'
p316
g9
sS'CINDERELLA_MAN_DVS131'
p317
g27
sS'SALT_DVS482'
p318
g17
sS'TOOTH_FAIRY_DVS178'
p319
g9
sS'MORNING_GLORY_DVS482'
p320
g9
sS'THE_GIRL_WITH_THE_DRAGON_TATTOO_DVS306'
p321
g9
sS'SPARKLE_2012_DVS180'
p322
g9
sS'COLOMBIANA_DVS967'
p323
g45
sS'CINDERELLA_MAN_DVS221'
p324
g11
sS'FLIGHT_DVS909'
p325
g262
sS'KARATE_KID_DVS1407'
p326
g63
sS'THINK_LIKE_A_MAN_DVS166'
p327
g9
sS'LITTLE_FOCKERS_DVS155'
p328
g9
sS'HUGO_DVS457'
p329
g7
sS'THOR_DVS664'
p330
g11
sS'HANSEL_GRETEL_WITCH_HUNTERS_DVS321'
p331
g27
sS'THE_ART_OF_GETTING_BY_DVS103'
p332
g9
sS'A_GOOD_DAY_TO_DIE_HARD_DVS203'
p333
g2
sS'THE_ART_OF_GETTING_BY_DVS105'
p334
g7
sS'HANSEL_GRETEL_WITCH_HUNTERS_DVS326'
p335
g27
sS'HANSEL_GRETEL_WITCH_HUNTERS_DVS437'
p336
g2
sS'THE_ART_OF_GETTING_BY_DVS213'
p337
g9
sS'JUST_GO_WITH_IT_DVS318'
p338
g63
sS'PUBLIC_ENEMIES_DVS78'
p339
g2
sS'DISTRICT_9_DVS793'
p340
g11
sS'ITS_COMPLICATED_DVS380'
p341
g9
sS'TITANIC_2_DVS212'
p342
g9
sS'TITANIC_2_DVS210'
p343
g11
sS'TITANIC_2_DVS211'
p344
g11
sS'FRIENDS_WITH_BENEFITS_DVS344'
p345
g41
sS'FRIENDS_WITH_BENEFITS_DVS346'
p346
g2
sS'HANSEL_GRETEL_WITCH_HUNTERS_DVS502'
p347
g11
sS'TITANIC_2_DVS454'
p348
g2
sS'IDES_OF_MARCH_DVS25'
p349
g7
sS'IDES_OF_MARCH_DVS21'
p350
g7
sS'THINK_LIKE_A_MAN_DVS218'
p351
g27
sS'CAPTAIN_AMERICA_DVS233'
p352
g11
sS'CAPTAIN_AMERICA_DVS230'
p353
g52
sS'CAPTAIN_AMERICA_DVS236'
p354
g11
sS'A_GOOD_DAY_TO_DIE_HARD_DVS688'
p355
g2
sS'SOUL_SURFER_DVS256'
p356
g9
sS'BATTLE_LOS_ANGELES_DVS244'
p357
g27
sS'COLOMBIANA_DVS104'
p358
g262
sS'CHASING_MAVERICKS_DVS164'
p359
g2
sS'YOUNG_ADULT_DVS411'
p360
g2
sS'THE_BOUNTY_HUNTER_DVS558'
p361
g262
sS'CAPTAIN_AMERICA_DVS343'
p362
g11
sS'THOR_DVS441'
p363
g52
sS'CHARLIE_ST_CLOUD_DVS176'
p364
g9
sS'JUST_GO_WITH_IT_DVS260'
p365
g27
sS'JUST_GO_WITH_IT_DVS266'
p366
g2
sS'THE_ADVENTURES_OF_TINTIN_DVS577'
p367
g11
sS'ITS_COMPLICATED_DVS154'
p368
g27
sS'PERCY_JACKSON_LIGHTENING_THIEF_DVS266'
p369
g11
sS'GHOST_RIDER_SPIRIT_OF_VENGEANCE_DVS525'
p370
g11
sS'GHOST_RIDER_SPIRIT_OF_VENGEANCE_DVS527'
p371
g11
sS'CAPTAIN_AMERICA_DVS560'
p372
g11
sS'LIFE_OF_PI_DVS888'
p373
g9
sS'GHOST_RIDER_SPIRIT_OF_VENGEANCE_DVS528'
p374
g11
sS'30_MINUTES_OR_LESS_DVS208'
p375
S'annotated'
p376
sS'THE_ROOMMATE_DVS142'
p377
g2
sS'PUBLIC_ENEMIES_DVS96'
p378
g11
sS'XMEN_FIRST_CLASS_DVS1084'
p379
g9
sS'JACK_AND_JILL_DVS155'
p380
g11
sS'KATY_PERRY_PART_OF_ME_DVS156'
p381
g11
sS'GREEN_ZONE_DVS180'
p382
g17
sS'KATY_PERRY_PART_OF_ME_DVS55'
p383
g7
sS'SOUL_SURFER_DVS253'
p384
g27
sS'KARATE_KID_DVS969'
p385
g11
sS'BIG_MOMMAS_LIKE_FATHER_LIKE_SON_DVS554'
p386
g41
sS'KARATE_KID_DVS965'
p387
g9
sS'KARATE_KID_DVS964'
p388
g2
sS'FLIGHT_DVS488'
p389
g2
sS'KARATE_KID_DVS769'
p390
g11
sS'XMEN_FIRST_CLASS_DVS952'
p391
g9
sS'IN_TIME_DVS950'
p392
g9
sS'THE_WATCH_DVS302'
p393
g63
sS'IRON_MAN_2_DVS593'
p394
g11
sS'BIG_MOMMAS_LIKE_FATHER_LIKE_SON_DVS294'
p395
g2
sS'IRON_MAN_2_DVS594'
p396
g11
sS'30_MINUTES_OR_LESS_DVS337'
p397
g11
sS'EASY_A_DVS133'
p398
g27
sS'SORCERERS_APPRENTICE_DVS144'
p399
g17
sS'A_THOUSAND_WORDS_DVS273'
p400
g17
sS'SUPER_8_DVS405'
p401
g11
sS'THE_ADVENTURES_OF_TINTIN_DVS273'
p402
g2
sS'ZOMBIELAND_DVS49'
p403
g11
sS'TITANIC_1_DVS286'
p404
g2
sS'THE_WATCH_DVS520'
p405
g11
sS'HOW_DO_YOU_KNOW_DVS151'
p406
g11
sS'HOW_DO_YOU_KNOW_DVS710'
p407
g17
sS'UGLY_TRUTH_DVS363'
p408
g41
sS'THE_WATCH_DVS410'
p409
g27
sS'THE_ADVENTURES_OF_TINTIN_DVS473'
p410
g63
sS'TITANIC_1_DVS374'
p411
g11
sS'WE_BOUGHT_A_ZOO_DVS124'
p412
g9
sS'RUBY_SPARKS_DVS574'
p413
g52
sS'THE_SOCIAL_NETWORK_DVS86'
p414
g41
sS'CHASING_MAVERICKS_DVS412'
p415
g2
sS'500DAYSOFSUMMER_DVS375'
p416
g15
sS'WE_BOUGHT_A_ZOO_DVS467'
p417
g9
sS'TITANIC_1_DVS305'
p418
g11
sS'THE_BOUNTY_HUNTER_DVS345'
p419
g63
sS'BURLESQUE_DVS213'
p420
g63
sS'RUBY_SPARKS_DVS378'
p421
g11
sS'TITANIC_1_DVS115'
p422
g11
sS'TITANIC_1_DVS116'
p423
g11
sS'TITANIC_1_DVS117'
p424
g11
sS'TITANIC_1_DVS112'
p425
g2
sS'THE_SOCIAL_NETWORK_DVS163'
p426
g9
sS'HOW_DO_YOU_KNOW_DVS442'
p427
g17
sS'DEAR_JOHN_DVS28'
p428
g34
sS'LAND_OF_THE_LOST_DVS160'
p429
g27
sS'SPARKLE_2012_DVS228'
p430
g11
sS'THE_GIRL_WITH_THE_DRAGON_TATTOO_DVS822'
p431
g27
sS'500DAYSOFSUMMER_DVS150'
p432
g15
sS'DEAR_JOHN_DVS719'
p433
g9
sS'THE_BIG_YEAR_DVS587'
p434
g11
sS'SUPER_8_DVS229'
p435
g11
sS'CAPTAIN_AMERICA_DVS312'
p436
g11
sS'BURLESQUE_DVS610'
p437
g11
sS'CAPTAIN_AMERICA_DVS314'
p438
g11
sS'INSIDE_MAN_DVS32'
p439
g11
sS'MORNING_GLORY_DVS68'
p440
g2
sS'THE_GIRL_WITH_THE_DRAGON_TATTOO_DVS220'
p441
g52
sS'YOUNG_ADULT_DVS90'
p442
g11
sS'TOOTH_FAIRY_DVS169'
p443
g2
sS'SUPER_8_DVS565'
p444
g11
sS'SALT_DVS107'
p445
g9
sS'MORNING_GLORY_DVS499'
p446
g11
sS'COLOMBIANA_DVS977'
p447
g2
sS'TITANIC_2_DVS739'
p448
g11
sS'ITS_COMPLICATED_DVS374'
p449
g41
sS'THE_VOW_DVS201'
p450
g11
sS'TITANIC_2_DVS732'
p451
g2
sS'HUGO_DVS441'
p452
g11
sS'A_GOOD_DAY_TO_DIE_HARD_DVS560'
p453
g11
sS'IN_TIME_DVS556'
p454
g11
sS'THE_SITTER_DVS83'
p455
g11
sS'THE_SITTER_DVS84'
p456
g11
sS'THE_DESCENDANTS_DVS148'
p457
g34
sS'THINK_LIKE_A_MAN_DVS518'
p458
g9
sS'TITANIC_1_DVS280'
p459
g11
sS'TOOTH_FAIRY_DVS306'
p460
g11
sS'THE_ART_OF_GETTING_BY_DVS265'
p461
g11
sS'THE_BOUNTY_HUNTER_DVS432'
p462
g9
sS'PERCY_JACKSON_LIGHTENING_THIEF_DVS409'
p463
g2
sS'A_GOOD_DAY_TO_DIE_HARD_DVS304'
p464
g52
sS'ZOMBIELAND_DVS685'
p465
g63
sS'UGLY_TRUTH_DVS367'
p466
g17
sS'HANSEL_GRETEL_WITCH_HUNTERS_DVS422'
p467
g27
sS'MR_POPPERS_PENGUINS_DVS580'
p468
g17
sS'HANSEL_GRETEL_WITCH_HUNTERS_DVS426'
p469
g27
sS'TITANIC_2_DVS200'
p470
g9
sS'TOOTH_FAIRY_DVS436'
p471
g7
sS'TITANIC_2_DVS207'
p472
g11
sS'GREEN_ZONE_DVS34'
p473
g27
sS'THE_ADVENTURES_OF_TINTIN_DVS61'
p474
g2
sS'BURLESQUE_DVS395'
p475
g2
sS'CINDERELLA_MAN_DVS193'
p476
g17
sS'MR_POPPERS_PENGUINS_DVS344'
p477
g52
sS'CAPTAIN_AMERICA_DVS223'
p478
g11
sS'CAPTAIN_AMERICA_DVS226'
p479
g11
sS'DISTRICT_9_DVS546'
p480
g9
sS'WHATS_YOUR_NUMBER_DVS606'
p481
g11
sS'PERCY_JACKSON_LIGHTENING_THIEF_DVS313'
p482
g11
sS'PERCY_JACKSON_LIGHTENING_THIEF_DVS312'
p483
g11
sS'ROBIN_HOOD_DVS134'
p484
g11
sS'LIFE_OF_PI_DVS509'
p485
g2
sS'CAPTAIN_AMERICA_DVS355'
p486
g11
sS'LIFE_OF_PI_DVS506'
p487
g2
sS'MR_POPPERS_PENGUINS_DVS192'
p488
g11
sS'CAPTAIN_AMERICA_DVS352'
p489
g11
sS'A_GOOD_DAY_TO_DIE_HARD_DVS789'
p490
g11
sS'CHARLIE_ST_CLOUD_DVS168'
p491
g9
sS'CHARLIE_ST_CLOUD_DVS169'
p492
g52
sS'CHARLIE_ST_CLOUD_DVS162'
p493
g11
sS'CHARLIE_ST_CLOUD_DVS163'
p494
g52
sS'ABRAHAM_LINCOLN_VAMPIRE_HUNTER_DVS665'
p495
g11
sS'PERCY_JACKSON_LIGHTENING_THIEF_DVS272'
p496
g2
sS'COLOMBIANA_DVS209'
p497
g9
sS'ITS_COMPLICATED_DVS145'
p498
g7
sS'JACK_AND_JILL_DVS30'
p499
g7
sS'SANCTUM_DVS373'
p500
g9
sS'MR_POPPERS_PENGUINS_DVS612'
p501
g9
sS'LIFE_OF_PI_DVS472'
p502
g2
sS'ZOMBIELAND_DVS666'
p503
g52
sS'DISTRICT_9_DVS769'
p504
g11
sS'CAPTAIN_AMERICA_DVS174'
p505
g9
sS'THOR_DVS542'
p506
g11
sS'NO_STRINGS_ATTACHED_DVS388'
p507
g11
sS'KATY_PERRY_PART_OF_ME_DVS48'
p508
g7
sS'THE_ROOMMATE_DVS197'
p509
g11
sS'NO_STRINGS_ATTACHED_DVS122'
p510
g41
sS'TOOTH_FAIRY_DVS892'
p511
g17
sS'WHATS_YOUR_NUMBER_DVS575'
p512
g11
sS'THE_WATCH_DVS52'
p513
g11
sS'XMEN_FIRST_CLASS_DVS765'
p514
g27
sS'IDES_OF_MARCH_DVS191'
p515
g27
sS'WHATS_YOUR_NUMBER_DVS485'
p516
g17
sS'ABRAHAM_LINCOLN_VAMPIRE_HUNTER_DVS404'
p517
g11
sS'CINDERELLA_MAN_DVS69'
p518
g11
sS'FLIGHT_DVS1244'
p519
g41
sS'THE_WATCH_DVS319'
p520
g11
sS'CHRONICLE_DVS107'
p521
g11
sS'500DAYSOFSUMMER_DVS367'
p522
g9
sS'THE_DESCENDANTS_DVS39'
p523
g17
sS'SUPER_8_DVS412'
p524
g11
sS'THE_DESCENDANTS_DVS35'
p525
g17
sS'HUGO_DVS67'
p526
g2
sS'HUGO_DVS66'
p527
g2
sS'HUGO_DVS64'
p528
g11
sS'A_THOUSAND_WORDS_DVS240'
p529
g11
sS'HUGO_DVS61'
p530
g11
sS'RUBY_SPARKS_DVS142'
p531
g11
sS'TITANIC_1_DVS290'
p532
g11
sS'KARATE_KID_DVS971'
p533
g27
sS'CHARLIE_ST_CLOUD_DVS289'
p534
g11
sS'XMEN_FIRST_CLASS_DVS1067'
p535
g2
sS'WE_BOUGHT_A_ZOO_DVS138'
p536
g9
sS'COLOMBIANA_DVS763'
p537
g11
sS'BATTLE_LOS_ANGELES_DVS467'
p538
g17
sS'KARATE_KID_DVS1314'
p539
g11
sS'GREEN_ZONE_DVS347'
p540
g9
sS'SUPER_8_DVS306'
p541
g11
sS'WE_BOUGHT_A_ZOO_DVS626'
p542
g11
sS'THIS_MEANS_WAR_DVS458'
p543
g63
sS'PROMETHEUS_DVS365'
p544
g11
sS'SPARKLE_2012_DVS504'
p545
g9
sS'SPARKLE_2012_DVS507'
p546
g11
sS'THE_SOCIAL_NETWORK_DVS112'
p547
g11
sS'XMEN_FIRST_CLASS_DVS1111'
p548
g7
sS'ITS_COMPLICATED_DVS7'
p549
g41
sS'KARATE_KID_DVS1081'
p550
g11
sS'UGLY_TRUTH_DVS603'
p551
g9
sS'GREEN_ZONE_DVS236'
p552
g9
sS'IRON_MAN_2_DVS43'
p553
g11
sS'THIS_MEANS_WAR_DVS26'
p554
g63
sS'THIS_MEANS_WAR_DVS22'
p555
g11
sS'BATTLE_LOS_ANGELES_DVS43'
p556
g27
sS'CHASING_MAVERICKS_DVS214'
p557
g63
sS'THE_VOW_DVS696'
p558
g9
sS'DEAR_JOHN_DVS631'
p559
g9
sS'PROMETHEUS_DVS97'
p560
g7
sS'UGLY_TRUTH_DVS477'
p561
g52
sS'21_JUMP_STREET_DVS42'
p562
g11
sS'500DAYSOFSUMMER_DVS143'
p563
g15
sS'HUGO_DVS89'
p564
g17
sS'DEATH_AT_A_FUNERAL_DVS275'
p565
g2
sS'UGLY_TRUTH_DVS594'
p566
g9
sS'CINDERELLA_MAN_DVS335'
p567
g11
sS'SNOW_FLOWER_FD_DVS1053'
p568
g2
sS'LITTLE_FOCKERS_DVS137'
p569
g27
sS'SPARKLE_2012_DVS232'
p570
g11
sS'THINK_LIKE_A_MAN_DVS348'
p571
g41
sS'SUPER_8_DVS125'
p572
g11
sS'MORNING_GLORY_DVS465'
p573
g11
sS'SPARKLE_2012_DVS239'
p574
g7
sS'TOOTH_FAIRY_DVS150'
p575
g9
sS'BURLESQUE_DVS571'
p576
g27
sS'KARATE_KID_DVS1424'
p577
g63
sS'THE_DESCENDANTS_DVS313'
p578
g9
sS'KARATE_KID_DVS1427'
p579
g52
sS'THE_BOUNTY_HUNTER_DVS398'
p580
g17
sS'HUGO_DVS128'
p581
g11
sS'HUGO_DVS438'
p582
g2
sS'MORNING_GLORY_DVS208'
p583
g11
sS'BRUNO_DVS127'
p584
g11
sS'MR_POPPERS_PENGUINS_DVS171'
p585
g11
sS'A_GOOD_DAY_TO_DIE_HARD_DVS171'
p586
g7
sS'TITANIC_2_DVS144'
p587
g7
sS'THE_SOCIAL_NETWORK_DVS299'
p588
g11
sS'TOOTH_FAIRY_DVS330'
p589
g9
sS'HUGO_DVS722'
p590
g11
sS'HUGO_DVS721'
p591
g11
sS'HUGO_DVS726'
p592
g11
sS'HUGO_DVS729'
p593
g11
sS'THE_VOW_DVS85'
p594
g7
sS'BLINDDATING_DVS69'
p595
S'annotated'
p596
sS'PARENTAL_GUIDANCE_DVS252'
p597
g17
sS'THE_CALL_DVS199'
p598
g17
sS'PUBLIC_ENEMIES_DVS50'
p599
g11
sS'PUBLIC_ENEMIES_DVS53'
p600
g11
sS'PUBLIC_ENEMIES_DVS52'
p601
g11
sS'DEAR_JOHN_DVS213'
p602
g41
sS'21_JUMP_STREET_DVS395'
p603
g9
sS'LAND_OF_THE_LOST_DVS242'
p604
g11
sS'LAND_OF_THE_LOST_DVS246'
p605
g52
sS'A_THOUSAND_WORDS_DVS236'
p606
g11
sS'CAPTAIN_AMERICA_DVS218'
p607
g52
sS'FRIENDS_WITH_BENEFITS_DVS276'
p608
g34
sS'WHATS_YOUR_NUMBER_DVS77'
p609
g9
sS'CAPTAIN_AMERICA_DVS217'
p610
g11
sS'CAPTAIN_AMERICA_DVS211'
p611
g11
sS'21_JUMP_STREET_DVS448'
p612
g11
sS'JUST_GO_WITH_IT_DVS208'
p613
g52
sS'ITS_COMPLICATED_DVS36'
p614
g9
sS'CINDERELLA_MAN_DVS20'
p615
g11
sS'GHOST_RIDER_SPIRIT_OF_VENGEANCE_DVS322'
p616
g17
sS'GHOST_RIDER_SPIRIT_OF_VENGEANCE_DVS320'
p617
g52
sS'COLOMBIANA_DVS166'
p618
g63
sS'COLOMBIANA_DVS160'
p619
g11
sS'21_JUMP_STREET_DVS287'
p620
g15
sS'ZOMBIELAND_DVS274'
p621
g52
sS'THE_BOUNTY_HUNTER_DVS578'
p622
g7
sS'ROBIN_HOOD_DVS214'
p623
g11
sS'21_JUMP_STREET_DVS665'
p624
g52
sS'GREEN_ZONE_DVS437'
p625
g11
sS'CAPTAIN_AMERICA_DVS540'
p626
g11
sS'CAPTAIN_AMERICA_DVS542'
p627
g262
sS'CAPTAIN_AMERICA_DVS545'
p628
g11
sS'ZOMBIELAND_DVS650'
p629
g11
sS'GHOST_RIDER_SPIRIT_OF_VENGEANCE_DVS252'
p630
g2
sS'ABRAHAM_LINCOLN_VAMPIRE_HUNTER_DVS277'
p631
g11
sS'JACK_AND_JILL_DVS402'
p632
g2
sS'DISTRICT_9_DVS207'
p633
g7
sS'FRIENDS_WITH_BENEFITS_DVS384'
p634
g262
sS'EASY_A_DVS51'
p635
g27
sS'BATTLE_LOS_ANGELES_DVS682'
p636
g52
sS'JULIE_AND_JULIA_DVS88'
p637
g27
sS'WHATS_YOUR_NUMBER_DVS743'
p638
g11
sS'WHATS_YOUR_NUMBER_DVS740'
p639
g7
sS'LIFE_OF_PI_DVS222'
p640
g9
sS'THE_ROOMMATE_DVS347'
p641
g9
sS'TITANIC_1_DVS37'
p642
g11
sS'SANCTUM_DVS417'
p643
g17
sS'SANCTUM_DVS410'
p644
g34
sS'SORCERERS_APPRENTICE_DVS99'
p645
g9
sS'KARATE_KID_DVS742'
p646
g9
sS'THE_WATCH_DVS328'
p647
g41
sS'21_JUMP_STREET_DVS266'
p648
g27
sS'ITS_COMPLICATED_DVS280'
p649
g7
sS'THE_WATCH_DVS322'
p650
g11
sS'21_JUMP_STREET_DVS269'
p651
g11
sS'21_JUMP_STREET_DVS36'
p652
g11
sS'LIFE_OF_PI_DVS139'
p653
g9
sS'IRON_MAN_2_DVS557'
p654
g11
sS'RUBY_SPARKS_DVS488'
p655
g11
sS'BLINDDATING_DVS196'
p656
g2
sS'TITANIC_1_DVS76'
p657
g11
sS'LAND_OF_THE_LOST_DVS29'
p658
g27
sS'DINNER_FOR_SCHMUCKS_DVS75'
p659
g17
sS'THE_ADVENTURES_OF_TINTIN_DVS457'
p660
g27
sS'CHARLIE_ST_CLOUD_DVS290'
p661
g11
sS'TITANIC_1_DVS357'
p662
g11
sS'UGLY_TRUTH_DVS340'
p663
g2
sS'BLINDDATING_DVS285'
p664
g11
sS'COLOMBIANA_DVS410'
p665
g2
sS'NANNY_MCPHEE_RETURNS_DVS35'
p666
g7
sS'THE_WATCH_DVS184'
p667
g2
sS'BURLESQUE_DVS746'
p668
g11
sS'LARRY_CROWNE_DVS138'
p669
g9
sS'HOW_DO_YOU_KNOW_DVS283'
p670
g27
sS'KARATE_KID_DVS1305'
p671
g11
sS'CINDERELLA_MAN_DVS37'
p672
g11
sS'THE_ADVENTURES_OF_TINTIN_DVS632'
p673
g11
sS'THE_ADVENTURES_OF_TINTIN_DVS636'
p674
g2
sS'NANNY_MCPHEE_RETURNS_DVS377'
p675
g2
sS'WE_BOUGHT_A_ZOO_DVS653'
p676
g11
sS'KATY_PERRY_PART_OF_ME_DVS321'
p677
g7
sS'TITANIC_1_DVS133'
p678
g11
sS'TITANIC_1_DVS130'
p679
g9
sS'500DAYSOFSUMMER_DVS227'
p680
g11
sS'COLOMBIANA_DVS576'
p681
g9
sS'ABRAHAM_LINCOLN_VAMPIRE_HUNTER_DVS353'
p682
g11
sS'KARATE_KID_DVS1230'
p683
g9
sS'THIS_MEANS_WAR_DVS481'
p684
g262
sS'NANNY_MCPHEE_RETURNS_DVS390'
p685
g17
sS'THIS_MEANS_WAR_DVS34'
p686
g9
sS'BATTLE_LOS_ANGELES_DVS76'
p687
g9
sS'IN_TIME_DVS607'
p688
g2
sS'TOOTH_FAIRY_DVS28'
p689
g9
sS'500DAYSOFSUMMER_DVS133'
p690
g15
sS'SANCTUM_DVS40'
p691
g27
sS'BATTLE_LOS_ANGELES_DVS527'
p692
g9
sS'BATTLE_LOS_ANGELES_DVS525'
p693
g9
sS'BATTLE_LOS_ANGELES_DVS524'
p694
g41
sS'BATTLE_LOS_ANGELES_DVS523'
p695
g11
sS'LIFE_OF_PI_DVS550'
p696
g2
sS'SPARKLE_2012_DVS394'
p697
g17
sS'MORNING_GLORY_DVS49'
p698
g41
sS'MORNING_GLORY_DVS46'
p699
g17
sS'TOOTH_FAIRY_DVS94'
p700
g9
sS'MORNING_GLORY_DVS475'
p701
g11
sS'40_YEAR_OLD_VIRGIN_DVS209'
p702
g7
sS'THOR_DVS316'
p703
g11
sS'SUPER_8_DVS173'
p704
g11
sS'MORNING_GLORY_DVS476'
p705
g11
sS'BURLESQUE_DVS565'
p706
g41
sS'SUPER_8_DVS116'
p707
g11
sS'RUBY_SPARKS_DVS28'
p708
g11
sS'THE_ADVENTURES_OF_TINTIN_DVS69'
p709
g11
sS'COLOMBIANA_DVS426'
p710
g27
sS'KARATE_KID_DVS1430'
p711
g7
sS'CHRONICLE_DVS30'
p712
g7
sS'A_GOOD_DAY_TO_DIE_HARD_DVS541'
p713
g11
sS'THE_CALL_DVS281'
p714
g9
sS'A_GOOD_DAY_TO_DIE_HARD_DVS516'
p715
g11
sS'IN_TIME_DVS574'
p716
g9
sS'THE_DESCENDANTS_DVS129'
p717
g2
sS'INSIDE_MAN_DVS318'
p718
g7
sS'IN_TIME_DVS778'
p719
g11
sS'CINDERELLA_MAN_DVS450'
p720
g7
sS'CINDERELLA_MAN_DVS456'
p721
g17
sS'MORNING_GLORY_DVS210'
p722
g11
sS'MORNING_GLORY_DVS216'
p723
g11
sS'MORNING_GLORY_DVS215'
p724
g11
sS'THE_GIRL_WITH_THE_DRAGON_TATTOO_DVS776'
p725
g27
sS'HUGO_DVS736'
p726
g2
sS'HUGO_DVS737'
p727
g27
sS'IN_TIME_DVS372'
p728
g34
sS'FRIENDS_WITH_BENEFITS_DVS177'
p729
g7
sS'ZOMBIELAND_DVS467'
p730
g17
sS'BLINDDATING_DVS79'
p731
g11
sS'FRIENDS_WITH_BENEFITS_DVS178'
p732
g7
sS'HANSEL_GRETEL_WITCH_HUNTERS_DVS440'
p733
g2
sS'PUBLIC_ENEMIES_DVS28'
p734
g9
sS'CHASING_MAVERICKS_DVS1073'
p735
g27
sS'FRIENDS_WITH_BENEFITS_DVS26'
p736
g11
sS'TITANIC_2_DVS461'
p737
g9
sS'SALT_DVS81'
p738
g7
sS'EASY_A_DVS263'
p739
g11
sS'THE_WATCH_DVS543'
p740
g11
sS'XMEN_FIRST_CLASS_DVS567'
p741
g27
sS'21_JUMP_STREET_DVS454'
p742
g9
sS'PERCY_JACKSON_LIGHTENING_THIEF_DVS338'
p743
g2
sS'MR_POPPERS_PENGUINS_DVS434'
p744
g262
sS'COLOMBIANA_DVS176'
p745
S'annotated'
p746
sS'SORCERERS_APPRENTICE_DVS169'
p747
g11
sS'GHOST_RIDER_SPIRIT_OF_VENGEANCE_DVS333'
p748
g2
sS'COLOMBIANA_DVS171'
p749
g11
sS'BATTLE_LOS_ANGELES_DVS325'
p750
g2
sS'SORCERERS_APPRENTICE_DVS162'
p751
g17
sS'SORCERERS_APPRENTICE_DVS163'
p752
g7
sS'SUPER_8_DVS581'
p753
g11
sS'GREEN_ZONE_DVS18'
p754
g11
sS'JACK_AND_JILL_DVS322'
p755
g7
sS'THE_BOUNTY_HUNTER_DVS563'
p756
g9
sS'NO_STRINGS_ATTACHED_DVS97'
p757
g27
sS'IDES_OF_MARCH_DVS284'
p758
g2
sS'BATTLE_LOS_ANGELES_DVS328'
p759
g11
sS'ROBIN_HOOD_DVS202'
p760
g9
sS'ZOOKEEPER_DVS427'
p761
g9
sS'KARATE_KID_DVS351'
p762
g9
sS'ABRAHAM_LINCOLN_VAMPIRE_HUNTER_DVS640'
p763
g52
sS'XMEN_FIRST_CLASS_DVS1261'
p764
g11
sS'21_JUMP_STREET_DVS182'
p765
g11
sS'CAPTAIN_AMERICA_DVS558'
p766
g229
sS'CAPTAIN_AMERICA_DVS557'
p767
g229
sS'CAPTAIN_AMERICA_DVS556'
p768
g11
sS'THE_ROOMMATE_DVS98'
p769
g262
sS'GHOST_RIDER_SPIRIT_OF_VENGEANCE_DVS249'
p770
g114
sS'ZOMBIELAND_DVS312'
p771
g7
sS'JACK_AND_JILL_DVS436'
p772
g17
sS'JACK_AND_JILL_DVS434'
p773
g41
sS'PARENTAL_GUIDANCE_DVS84'
p774
g11
sS'EASY_A_DVS23'
p775
g9
sS'PERCY_JACKSON_LIGHTENING_THIEF_DVS258'
p776
g11
sS'JACK_AND_JILL_DVS184'
p777
g11
sS'WHATS_YOUR_NUMBER_DVS750'
p778
g11
sS'RUBY_SPARKS_DVS451'
p779
g9
sS'CHASING_MAVERICKS_DVS335'
p780
g52
sS'CHASING_MAVERICKS_DVS331'
p781
g262
sS'KATY_PERRY_PART_OF_ME_DVS192'
p782
g2
sS'IN_TIME_DVS908'
p783
g11
sS'SOUL_SURFER_DVS226'
p784
g41
sS'JULIE_AND_JULIA_DVS316'
p785
g7
sS'THE_ROOMMATE_DVS400'
p786
g9
sS'THE_WATCH_DVS35'
p787
g11
sS'SNOW_FLOWER_FD_DVS495'
p788
g9
sS'BAD_TEACHER_DVS98'
p789
g27
sS'CAPTAIN_AMERICA_DVS554'
p790
g11
sS'WHATS_YOUR_NUMBER_DVS354'
p791
g17
sS'TITANIC_1_DVS556'
p792
g9
sS'CAPTAIN_AMERICA_DVS498'
p793
g2
sS'BURLESQUE_DVS360'
p794
g2
sS'COLOMBIANA_DVS314'
p795
g17
sS'CHARLIE_ST_CLOUD_DVS352'
p796
g9
sS'KARATE_KID_DVS1159'
p797
g2
sS'NANNY_MCPHEE_RETURNS_DVS147'
p798
g9
sS'NANNY_MCPHEE_RETURNS_DVS493'
p799
g52
sS'IRON_MAN_2_DVS546'
p800
g11
sS'UGLY_TRUTH_DVS355'
p801
g17
sS'30_MINUTES_OR_LESS_DVS251'
p802
g11
sS'WE_BOUGHT_A_ZOO_DVS420'
p803
g17
sS'THOR_DVS82'
p804
g11
sS'TITANIC_1_DVS342'
p805
g11
sS'COLOMBIANA_DVS407'
p806
S'annotated'
p807
sS'CHASING_MAVERICKS_DVS428'
p808
g2
sS'THE_ADVENTURES_OF_TINTIN_DVS489'
p809
g34
sS'SUPER_8_DVS94'
p810
g11
sS'HOW_DO_YOU_KNOW_DVS295'
p811
g11
sS'JULIE_AND_JULIA_DVS605'
p812
g9
sS'THE_ADVENTURES_OF_TINTIN_DVS480'
p813
g11
sS'CHASING_MAVERICKS_DVS522'
p814
g746
sS'WE_BOUGHT_A_ZOO_DVS37'
p815
g41
sS'COLOMBIANA_DVS733'
p816
g9
sS'ZOMBIELAND_DVS646'
p817
g11
sS'FLIGHT_DVS81'
p818
g2
sS'PROMETHEUS_DVS933'
p819
g52
sS'PROMETHEUS_DVS932'
p820
g11
sS'TITANIC_1_DVS127'
p821
g11
sS'GROWN_UPS_DVS15'
p822
g11
sS'XMEN_FIRST_CLASS_DVS1137'
p823
g2
sS'SPARKLE_2012_DVS526'
p824
g7
sS'SPARKLE_2012_DVS521'
p825
g41
sS'THE_ADVENTURES_OF_TINTIN_DVS155'
p826
g11
sS'30_MINUTES_OR_LESS_DVS100'
p827
g52
sS'GHOST_RIDER_SPIRIT_OF_VENGEANCE_DVS17'
p828
g52
sS'UGLY_TRUTH_DVS623'
p829
g27
sS'SUPER_8_DVS213'
p830
g63
sS'500DAYSOFSUMMER_DVS120'
p831
g15
sS'500DAYSOFSUMMER_DVS433'
p832
g15
sS'THE_GUILT_TRIP_DVS281'
p833
g11
sS'21_JUMP_STREET_DVS61'
p834
g376
sS'PUBLIC_ENEMIES_DVS568'
p835
g11
sS'THE_GUILT_TRIP_DVS159'
p836
g17
sS'THE_ART_OF_GETTING_BY_DVS263'
p837
g9
sS'TOOTH_FAIRY_DVS300'
p838
g27
sS'MORNING_GLORY_DVS55'
p839
g11
sS'MR_POPPERS_PENGUINS_DVS642'
p840
g52
sS'40_YEAR_OLD_VIRGIN_DVS218'
p841
g11
sS'THOR_DVS364'
p842
g11
sS'THINK_LIKE_A_MAN_DVS326'
p843
g11
sS'A_THOUSAND_WORDS_DVS165'
p844
g15
sS'NO_STRINGS_ATTACHED_DVS100'
p845
g11
sS'BRUNO_DVS109'
p846
g9
sS'THE_GIRL_WITH_THE_DRAGON_TATTOO_DVS347'
p847
g52
sS'A_GOOD_DAY_TO_DIE_HARD_DVS559'
p848
g15
sS'MR_POPPERS_PENGUINS_DVS609'
p849
g17
sS'PARENTAL_GUIDANCE_DVS383'
p850
g9
sS'CHASING_MAVERICKS_DVS859'
p851
g262
sS'INSIDE_MAN_DVS257'
p852
g27
sS'HANSEL_GRETEL_WITCH_HUNTERS_DVS272'
p853
g27
sS'MR_POPPERS_PENGUINS_DVS114'
p854
g34
sS'TITANIC_2_DVS672'
p855
g11
sS'MR_POPPERS_PENGUINS_DVS111'
p856
g34
sS'BURLESQUE_DVS429'
p857
g2
sS'HUGO_DVS705'
p858
g9
sS'IN_TIME_DVS909'
p859
g9
sS'WHATS_YOUR_NUMBER_DVS576'
p860
g9
sS'MR_POPPERS_PENGUINS_DVS281'
p861
g41
sS'CINDERELLA_MAN_DVS481'
p862
g17
sS'BLINDDATING_DVS86'
p863
g47
sS'THE_CALL_DVS671'
p864
g7
sS'PUBLIC_ENEMIES_DVS31'
p865
g11
sS'THOR_DVS151'
p866
g63
sS'THINK_LIKE_A_MAN_DVS259'
p867
g7
sS'THE_DESCENDANTS_DVS448'
p868
g9
sS'BURLESQUE_DVS85'
p869
g17
sS'THE_BIG_YEAR_DVS203'
p870
g9
sS'YOUNG_ADULT_DVS49'
p871
g9
sS'HUGO_DVS148'
p872
g9
sS'CHRONICLE_DVS27'
p873
g7
sS'HUGO_DVS143'
p874
g11
sS'TITANIC_2_DVS237'
p875
g11
sS'CHARLIE_ST_CLOUD_DVS136'
p876
g9
sS'21_JUMP_STREET_DVS462'
p877
g11
sS'21_JUMP_STREET_DVS464'
p878
g11
sS'GHOST_RIDER_SPIRIT_OF_VENGEANCE_DVS308'
p879
g9
sS'BATTLE_LOS_ANGELES_DVS202'
p880
g7
sS'JACK_AND_JILL_DVS118'
p881
g7
sS'A_THOUSAND_WORDS_DVS19'
p882
g7
sS'ZOOKEEPER_DVS214'
p883
g2
sS'IN_TIME_DVS176'
p884
g9
sS'CHASING_MAVERICKS_DVS591'
p885
g7
sS'HANSEL_GRETEL_WITCH_HUNTERS_DVS128'
p886
g27
sS'THE_BOUNTY_HUNTER_DVS352'
p887
g63
sS'ZOMBIELAND_DVS529'
p888
g17
sS'LARRY_CROWNE_DVS13'
p889
g27
sS'CAPTAIN_AMERICA_DVS308'
p890
g11
sS'JACK_AND_JILL_DVS332'
p891
g52
sS'JACK_AND_JILL_DVS192'
p892
g7
sS'GREEN_ZONE_DVS412'
p893
g11
sS'LIFE_OF_PI_DVS338'
p894
g7
sS'ZOMBIELAND_DVS639'
p895
g7
sS'LIFE_OF_PI_DVS423'
p896
g63
sS'LIFE_OF_PI_DVS426'
p897
g11
sS'JACK_AND_JILL_DVS425'
p898
g41
sS'EASY_A_DVS38'
p899
g11
sS'CHRONICLE_DVS133'
p900
g17
sS'WHATS_YOUR_NUMBER_DVS722'
p901
g11
sS'PERCY_JACKSON_LIGHTENING_THIEF_DVS135'
p902
g11
sS'PERCY_JACKSON_LIGHTENING_THIEF_DVS137'
p903
g2
sS'TITANIC_1_DVS309'
p904
g11
sS'GHOST_RIDER_SPIRIT_OF_VENGEANCE_DVS277'
p905
g9
sS'SALT_DVS282'
p906
g11
sS'IN_TIME_DVS916'
p907
g9
sS'ROBIN_HOOD_DVS22'
p908
g11
sS'IN_TIME_DVS57'
p909
g27
sS'LIFE_OF_PI_DVS374'
p910
g7
sS'ITS_COMPLICATED_DVS267'
p911
g9
sS'CHASING_MAVERICKS_DVS184'
p912
g11
sS'WHATS_YOUR_NUMBER_DVS435'
p913
g17
sS'NANNY_MCPHEE_RETURNS_DVS480'
p914
g11
sS'COLOMBIANA_DVS976'
p915
g2
sS'IRON_MAN_2_DVS537'
p916
g11
sS'IRON_MAN_2_DVS536'
p917
g11
sS'MORNING_GLORY_DVS490'
p918
g7
sS'FLIGHT_DVS511'
p919
g27
sS'A_THOUSAND_WORDS_DVS386'
p920
g2
sS'IRON_MAN_2_DVS624'
p921
g9
sS'CHASING_MAVERICKS_DVS454'
p922
g34
sS'TITANIC_1_DVS332'
p923
g41
sS'BURLESQUE_DVS229'
p924
g27
sS'KATY_PERRY_PART_OF_ME_DVS234'
p925
g7
sS'TITANIC_1_DVS338'
p926
g11
sS'BIG_MOMMAS_LIKE_FATHER_LIKE_SON_DVS415'
p927
g9
sS'COLOMBIANA_DVS438'
p928
g11
sS'UGLY_TRUTH_DVS384'
p929
g9
sS'SUPER_8_DVS353'
p930
g11
sS'CHASING_MAVERICKS_DVS534'
p931
g17
sS'SNOW_FLOWER_FD_DVS683'
p932
g41
sS'IRON_MAN_2_DVS441'
p933
g2
sS'THE_SITTER_DVS131'
p934
g17
sS'TITANIC_1_DVS248'
p935
g11
sS'TITANIC_1_DVS249'
p936
g11
sS'RUBY_SPARKS_DVS136'
p937
g11
sS'RUBY_SPARKS_DVS130'
p938
g34
sS'NANNY_MCPHEE_RETURNS_DVS153'
p939
g9
sS'CHRONICLE_DVS147'
p940
g27
sS'TITANIC_1_DVS247'
p941
g11
sS'ABRAHAM_LINCOLN_VAMPIRE_HUNTER_DVS423'
p942
g7
sS'GROWN_UPS_DVS68'
p943
g11
sS'WE_BOUGHT_A_ZOO_DVS679'
p944
g34
sS'COLOMBIANA_DVS886'
p945
g262
sS'THE_VOW_DVS480'
p946
g11
sS'THE_ADVENTURES_OF_TINTIN_DVS143'
p947
g11
sS'THE_ADVENTURES_OF_TINTIN_DVS144'
p948
g11
sS'LITTLE_FOCKERS_DVS241'
p949
g2
sS'THE_ADVENTURES_OF_TINTIN_DVS148'
p950
g11
sS'30_MINUTES_OR_LESS_DVS116'
p951
g376
sS'BATTLE_LOS_ANGELES_DVS542'
p952
g27
sS'TITANIC_1_DVS460'
p953
g34
sS'TITANIC_1_DVS461'
p954
g262
sS'THE_BIG_YEAR_DVS148'
p955
g11
sS'EASY_A_DVS193'
p956
g17
sS'THE_VOW_DVS700'
p957
g17
sS'SANCTUM_DVS22'
p958
g34
sS'21_JUMP_STREET_DVS73'
p959
g11
sS'SPARKLE_2012_DVS461'
p960
g17
sS'THE_BIG_YEAR_DVS569'
p961
g9
sS'HOW_DO_YOU_KNOW_DVS311'
p962
g17
sS'HUGO_DVS626'
p963
g2
sS'HUGO_DVS627'
p964
g7
sS'HUGO_DVS623'
p965
g17
sS'THOR_DVS372'
p966
g11
sS'TOOTH_FAIRY_DVS120'
p967
g27
sS'THE_ADVENTURES_OF_TINTIN_DVS42'
p968
g9
sS'TOOTH_FAIRY_DVS122'
p969
g2
sS'THE_ADVENTURES_OF_TINTIN_DVS49'
p970
g11
sS'HUGO_DVS393'
p971
g27
sS'A_GOOD_DAY_TO_DIE_HARD_DVS529'
p972
g52
sS'MR_POPPERS_PENGUINS_DVS632'
p973
g11
sS'21_JUMP_STREET_DVS681'
p974
g41
sS'A_GOOD_DAY_TO_DIE_HARD_DVS527'
p975
g11
sS'BURLESQUE_DVS439'
p976
g41
sS'40_YEAR_OLD_VIRGIN_DVS228'
p977
g11
sS'TITANIC_2_DVS663'
p978
g11
sS'TITANIC_2_DVS662'
p979
g11
sS'HUGO_DVS711'
p980
g11
sS'TITANIC_2_DVS665'
p981
g11
sS'MORNING_GLORY_DVS232'
p982
g17
sS'MORNING_GLORY_DVS234'
p983
g17
sS'THE_VOW_DVS155'
p984
g9
sS'SUPER_8_DVS27'
p985
g11
sS'DISTRICT_9_DVS505'
p986
g9
sS'CINDERELLA_MAN_DVS493'
p987
g7
sS'CINDERELLA_MAN_DVS491'
p988
g9
sS'IN_TIME_DVS136'
p989
g9
sS'ZOMBIELAND_DVS408'
p990
g11
sS'WE_BOUGHT_A_ZOO_DVS66'
p991
g2
sS'FRIENDS_WITH_BENEFITS_DVS159'
p992
g63
sS'MR_POPPERS_PENGUINS_DVS701'
p993
g11
sS'FRIENDS_WITH_BENEFITS_DVS151'
p994
g41
sS'TITANIC_2_DVS405'
p995
g9
sS'THOR_DVS168'
p996
g11
sS'BURLESQUE_DVS97'
p997
g27
sS'TOOTH_FAIRY_DVS582'
p998
g11
sS'HUGO_DVS405'
p999
g41
sS'JUST_GO_WITH_IT_DVS238'
p1000
g7
sS'CHARLIE_ST_CLOUD_DVS126'
p1001
g229
sS'CHARLIE_ST_CLOUD_DVS125'
p1002
g11
sS'A_GOOD_DAY_TO_DIE_HARD_DVS458'
p1003
g17
sS'JUST_GO_WITH_IT_DVS236'
p1004
g17
sS'GHOST_RIDER_SPIRIT_OF_VENGEANCE_DVS485'
p1005
g262
sS'IN_TIME_DVS627'
p1006
g9
sS'COLOMBIANA_DVS159'
p1007
g746
sS'SORCERERS_APPRENTICE_DVS416'
p1008
g9
sS'IN_TIME_DVS620'
p1009
g27
sS'COLOMBIANA_DVS150'
p1010
g63
sS'MORNING_GLORY_DVS163'
p1011
g11
sS'ZOOKEEPER_DVS229'
p1012
g63
sS'HANSEL_GRETEL_WITCH_HUNTERS_DVS135'
p1013
g11
sS'BAD_TEACHER_DVS162'
p1014
g7
sS'HANSEL_GRETEL_WITCH_HUNTERS_DVS138'
p1015
g11
sS'CAPTAIN_AMERICA_DVS313'
p1016
g229
sS'DISTRICT_9_DVS439'
p1017
g114
sS'HANSEL_GRETEL_WITCH_HUNTERS_DVS484'
p1018
g11
sS'A_THOUSAND_WORDS_DVS28'
p1019
g15
sS'THE_GIRL_WITH_THE_DRAGON_TATTOO_DVS1398'
p1020
g9
sS'NO_STRINGS_ATTACHED_DVS344'
p1021
g17
sS'ROBIN_HOOD_DVS266'
p1022
g9
sS'THE_GIRL_WITH_THE_DRAGON_TATTOO_DVS1397'
p1023
g9
sS'GREEN_ZONE_DVS465'
p1024
g9
sS'THE_ADVENTURES_OF_TINTIN_DVS487'
p1025
g63
sS'CAPTAIN_AMERICA_DVS535'
p1026
g11
sS'LIFE_OF_PI_DVS438'
p1027
g41
sS'ZOMBIELAND_DVS627'
p1028
g11
sS'THOR_DVS589'
p1029
g11
sS'ZOMBIELAND_DVS366'
p1030
g11
sS'JACK_AND_JILL_DVS450'
p1031
g63
sS'ZOMBIELAND_DVS335'
p1032
g9
sS'ITS_COMPLICATED_DVS311'
p1033
g17
sS'XMEN_FIRST_CLASS_DVS434'
p1034
g63
sS'CAPTAIN_AMERICA_DVS76'
p1035
g7
sS'CAPTAIN_AMERICA_DVS78'
p1036
g2
sS'WHATS_YOUR_NUMBER_DVS738'
p1037
g2
sS'IN_TIME_DVS924'
p1038
g17
sS'BRUNO_DVS83'
p1039
g27
sS'IN_TIME_DVS922'
p1040
g11
sS'SNOW_FLOWER_FD_DVS273'
p1041
g262
sS'FLIGHT_DVS213'
p1042
g9
sS'SANCTUM_DVS428'
p1043
g2
sS'LIFE_OF_PI_DVS321'
p1044
g63
sS'DISTRICT_9_DVS650'
p1045
g114
sS'ZOMBIELAND_DVS751'
p1046
g2
sS'CHASING_MAVERICKS_DVS192'
p1047
g63
sS'LIFE_OF_PI_DVS694'
p1048
g63
sS'SORCERERS_APPRENTICE_DVS47'
p1049
g262
sS'ITS_COMPLICATED_DVS275'
p1050
g17
sS'ITS_COMPLICATED_DVS274'
p1051
g7
sS'ITS_COMPLICATED_DVS273'
p1052
g9
sS'ABRAHAM_LINCOLN_VAMPIRE_HUNTER_DVS584'
p1053
g63
sS'WHATS_YOUR_NUMBER_DVS421'
p1054
g7
sS'THE_ADVENTURES_OF_TINTIN_DVS556'
p1055
g11
sS'JACK_AND_JILL_DVS31'
p1056
g11
sS'THIS_MEANS_WAR_DVS384'
p1057
g7
sS'KARATE_KID_DVS422'
p1058
g9
sS'SALT_DVS341'
p1059
g41
sS'NO_STRINGS_ATTACHED_DVS55'
p1060
g11
sS'JULIE_AND_JULIA_DVS52'
p1061
g9
sS'KATY_PERRY_PART_OF_ME_DVS228'
p1062
g11
sS'TITANIC_1_DVS324'
p1063
g11
sS'BURLESQUE_DVS236'
p1064
g27
sS'COLOMBIANA_DVS420'
p1065
g2
sS'COLOMBIANA_DVS423'
p1066
g27
sS'CHARLIE_ST_CLOUD_DVS241'
p1067
g11
sS'KARATE_KID_DVS1043'
p1068
g9
sS'SUPER_8_DVS343'
p1069
g9
sS'MR_POPPERS_PENGUINS_DVS30'
p1070
g17
sS'KARATE_KID_DVS1047'
p1071
g2
sS'MR_POPPERS_PENGUINS_DVS174'
p1072
g11
sS'RUBY_SPARKS_DVS216'
p1073
g11
sS'TITANIC_1_DVS259'
p1074
g11
sS'TITANIC_1_DVS251'
p1075
g11
sS'TITANIC_1_DVS250'
p1076
g11
sS'KATY_PERRY_PART_OF_ME_DVS319'
p1077
g9
sS'TITANIC_1_DVS256'
p1078
g11
sS'GREEN_ZONE_DVS115'
p1079
g17
sS'TOOTH_FAIRY_DVS875'
p1080
g63
sS'TOOTH_FAIRY_DVS874'
p1081
g9
sS'JULIE_AND_JULIA_DVS240'
p1082
g7
sS'DEATH_AT_A_FUNERAL_DVS234'
p1083
g2
sS'GHOST_RIDER_SPIRIT_OF_VENGEANCE_DVS31'
p1084
g262
sS'DEATH_AT_A_FUNERAL_DVS237'
p1085
g41
sS'FLIGHT_DVS187'
p1086
g9
sS'RUBY_SPARKS_DVS672'
p1087
g11
sS'RUBY_SPARKS_DVS671'
p1088
g11
sS'GROWN_UPS_DVS142'
p1089
g41
sS'TITANIC_1_DVS475'
p1090
g34
sS'THE_BIG_YEAR_DVS171'
p1091
g11
sS'THE_BIG_YEAR_DVS174'
p1092
g11
sS'THE_BIG_YEAR_DVS176'
p1093
g7
sS'THE_VOW_DVS361'
p1094
g262
sS'DEAR_JOHN_DVS181'
p1095
g11
sS'THE_VOW_DVS366'
p1096
g52
sS'PUBLIC_ENEMIES_DVS618'
p1097
g9
sS'PUBLIC_ENEMIES_DVS619'
p1098
g9
sS'THE_DESCENDANTS_DVS90'
p1099
g9
sS'THE_DESCENDANTS_DVS91'
p1100
g11
sS'500DAYSOFSUMMER_DVS102'
p1101
g9
sS'SPARKLE_2012_DVS476'
p1102
g27
sS'21_JUMP_STREET_DVS88'
p1103
g15
sS'CHASING_MAVERICKS_DVS610'
p1104
g9
sS'COLOMBIANA_DVS632'
p1105
g9
sS'ZOMBIELAND_DVS669'
p1106
g52
sS'THE_CALL_DVS508'
p1107
g11
sS'EASY_A_DVS233'
p1108
g2
sS'THOR_DVS428'
p1109
g17
sS'PARENTAL_GUIDANCE_DVS292'
p1110
g52
sS'BATTLE_LOS_ANGELES_DVS485'
p1111
g17
sS'THE_ADVENTURES_OF_TINTIN_DVS53'
p1112
g11
sS'THE_ADVENTURES_OF_TINTIN_DVS52'
p1113
g2
sS'THINK_LIKE_A_MAN_DVS309'
p1114
g52
sS'FLIGHT_DVS66'
p1115
g11
sS'HUGO_DVS361'
p1116
g9
sS'SPARKLE_2012_DVS293'
p1117
g9
sS'THE_BOUNTY_HUNTER_DVS110'
p1118
g7
sS'IN_TIME_DVS725'
p1119
g2
sS'DEAR_JOHN_DVS411'
p1120
g9
sS'TITANIC_2_DVS658'
p1121
g11
sS'HUGO_DVS766'
p1122
g52
sS'WHATS_YOUR_NUMBER_DVS734'
p1123
g7
sS'THE_BIG_YEAR_DVS190'
p1124
g17
sS'THE_BIG_YEAR_DVS197'
p1125
g27
sS'THE_VOW_DVS638'
p1126
g262
sS'HUGO_DVS505'
p1127
g34
sS'THE_ART_OF_GETTING_BY_DVS292'
p1128
g11
sS'FLIGHT_DVS183'
p1129
g114
sS'ZOMBIELAND_DVS437'
p1130
g7
sS'THE_ART_OF_GETTING_BY_DVS298'
p1131
g2
sS'KARATE_KID_DVS186'
p1132
g17
sS'IN_TIME_DVS380'
p1133
g34
sS'IN_TIME_DVS383'
p1134
g34
sS'COLOMBIANA_DVS1080'
p1135
g9
sS'THINK_LIKE_A_MAN_DVS472'
p1136
g9
sS'THE_DESCENDANTS_DVS460'
p1137
g11
sS'MR_POPPERS_PENGUINS_DVS625'
p1138
g27
sS'MR_POPPERS_PENGUINS_DVS624'
p1139
g27
sS'JUST_GO_WITH_IT_DVS145'
p1140
g11
sS'THE_BIG_YEAR_DVS226'
p1141
g52
sS'SALT_DVS403'
p1142
g11
sS'CHASING_MAVERICKS_DVS1027'
p1143
g9
sS'CHRONICLE_DVS43'
p1144
g27
sS'FRIENDS_WITH_BENEFITS_DVS73'
p1145
g11
sS'SORCERERS_APPRENTICE_DVS310'
p1146
g11
sS'FRIENDS_WITH_BENEFITS_DVS234'
p1147
g7
sS'XMEN_FIRST_CLASS_DVS530'
p1148
g2
sS'IN_TIME_DVS652'
p1149
g2
sS'HUGO_DVS183'
p1150
g9
sS'HUGO_DVS180'
p1151
g2
sS'YOUNG_ADULT_DVS274'
p1152
g7
sS'LIFE_OF_PI_DVS153'
p1153
g9
sS'THE_GIRL_WITH_THE_DRAGON_TATTOO_DVS1259'
p1154
g17
sS'KARATE_KID_DVS878'
p1155
g2
sS'TOOTH_FAIRY_DVS486'
p1156
g9
sS'30_MINUTES_OR_LESS_DVS21'
p1157
S'annotated'
p1158
sS'PARENTAL_GUIDANCE_DVS349'
p1159
g17
sS'SANCTUM_DVS30'
p1160
g17
sS'CAPTAIN_AMERICA_DVS324'
p1161
g11
sS'ITS_COMPLICATED_DVS413'
p1162
g17
sS'LARRY_CROWNE_DVS39'
p1163
g27
sS'DISTRICT_9_DVS401'
p1164
g27
sS'THE_SITTER_DVS19'
p1165
g27
sS'YOUNG_ADULT_DVS388'
p1166
g9
sS'IDES_OF_MARCH_DVS256'
p1167
g9
sS'LIFE_OF_PI_DVS597'
p1168
g34
sS'ZOMBIELAND_DVS291'
p1169
g7
sS'PROMETHEUS_DVS1024'
p1170
g52
sS'THOR_DVS594'
p1171
g9
sS'BURLESQUE_DVS333'
p1172
g2
sS'A_THOUSAND_WORDS_DVS438'
p1173
g41
sS'SORCERERS_APPRENTICE_DVS87'
p1174
g17
sS'THE_GUILT_TRIP_DVS283'
p1175
g41
sS'WHATS_YOUR_NUMBER_DVS258'
p1176
g9
sS'LIFE_OF_PI_DVS774'
p1177
g9
sS'SNOW_FLOWER_FD_DVS204'
p1178
g11
sS'IN_TIME_DVS935'
p1179
g9
sS'IN_TIME_DVS934'
p1180
g17
sS'WHATS_YOUR_NUMBER_DVS702'
p1181
g11
sS'XMEN_FIRST_CLASS_DVS944'
p1182
g9
sS'KATY_PERRY_PART_OF_ME_DVS32'
p1183
g7
sS'WHATS_YOUR_NUMBER_DVS707'
p1184
g11
sS'LIFE_OF_PI_DVS778'
p1185
g27
sS'CAPTAIN_AMERICA_DVS506'
p1186
g9
sS'COLOMBIANA_DVS182'
p1187
g63
sS'IN_TIME_DVS75'
p1188
g2
sS'21_JUMP_STREET_DVS225'
p1189
g11
sS'WE_BOUGHT_A_ZOO_DVS275'
p1190
g17
sS'LIFE_OF_PI_DVS178'
p1191
g11
sS'LAND_OF_THE_LOST_DVS69'
p1192
g9
sS'THE_WATCH_DVS388'
p1193
g11
sS'KARATE_KID_DVS899'
p1194
g2
sS'THE_WATCH_DVS380'
p1195
g2
sS'UGLY_TRUTH_DVS257'
p1196
g11
sS'BIG_MOMMAS_LIKE_FATHER_LIKE_SON_DVS470'
p1197
g27
sS'FLIGHT_DVS530'
p1198
g41
sS'21_JUMP_STREET_DVS135'
p1199
g11
sS'TITANIC_1_DVS318'
p1200
g2
sS'BURLESQUE_DVS202'
p1201
g2
sS'TITANIC_1_DVS310'
p1202
g11
sS'TITANIC_1_DVS317'
p1203
g63
sS'WE_BOUGHT_A_ZOO_DVS454'
p1204
g9
sS'SUPER_8_DVS579'
p1205
g11
sS'IRON_MAN_2_DVS514'
p1206
g11
sS'WE_BOUGHT_A_ZOO_DVS507'
p1207
g9
sS'RUBY_SPARKS_DVS115'
p1208
g11
sS'JULIE_AND_JULIA_DVS60'
p1209
g9
sS'TITANIC_1_DVS263'
p1210
g11
sS'RUBY_SPARKS_DVS447'
p1211
g7
sS'A_THOUSAND_WORDS_DVS299'
p1212
g11
sS'PROMETHEUS_DVS901'
p1213
g11
sS'MR_POPPERS_PENGUINS_DVS546'
p1214
g9
sS'30_MINUTES_OR_LESS_DVS138'
p1215
g376
sS'CHASING_MAVERICKS_DVS602'
p1216
g63
sS'TITANIC_1_DVS446'
p1217
g11
sS'KARATE_KID_DVS1580'
p1218
g63
sS'THE_CALL_DVS1108'
p1219
g27
sS'THE_ADVENTURES_OF_TINTIN_DVS164'
p1220
g52
sS'PUBLIC_ENEMIES_DVS338'
p1221
g9
sS'SUPER_8_DVS487'
p1222
g11
sS'SUPER_8_DVS485'
p1223
g2
sS'SUPER_8_DVS488'
p1224
g52
sS'COLOMBIANA_DVS628'
p1225
g2
sS'GHOST_RIDER_SPIRIT_OF_VENGEANCE_DVS20'
p1226
g27
sS'GHOST_RIDER_SPIRIT_OF_VENGEANCE_DVS22'
p1227
g11
sS'21_JUMP_STREET_DVS96'
p1228
g27
sS'COLOMBIANA_DVS627'
p1229
g34
sS'COLOMBIANA_DVS625'
p1230
g34
sS'KARATE_KID_DVS1472'
p1231
g27
sS'THINK_LIKE_A_MAN_DVS486'
p1232
g7
sS'HUGO_DVS632'
p1233
g52
sS'INSIDE_MAN_DVS54'
p1234
g27
sS'INSIDE_MAN_DVS55'
p1235
g2
sS'CINDERELLA_MAN_DVS382'
p1236
g7
sS'SUPER_8_DVS620'
p1237
g41
sS'SUPER_8_DVS153'
p1238
g11
sS'BATTLE_LOS_ANGELES_DVS31'
p1239
g17
sS'DEAR_JOHN_DVS598'
p1240
g9
sS'THE_GIRL_WITH_THE_DRAGON_TATTOO_DVS601'
p1241
g17
sS'SUPER_8_DVS393'
p1242
g9
sS'A_THOUSAND_WORDS_DVS246'
p1243
g9
sS'INSIDE_MAN_DVS429'
p1244
g27
sS'KARATE_KID_DVS597'
p1245
g63
sS'IN_TIME_DVS738'
p1246
g11
sS'HUGO_DVS375'
p1247
g9
sS'IN_TIME_DVS731'
p1248
g11
sS'IN_TIME_DVS730'
p1249
g63
sS'THE_ADVENTURES_OF_TINTIN_DVS88'
p1250
g11
sS'THIS_MEANS_WAR_DVS98'
p1251
g9
sS'SOUL_SURFER_DVS51'
p1252
g11
sS'COLOMBIANA_DVS848'
p1253
g7
sS'HUGO_DVS777'
p1254
g9
sS'HUGO_DVS69'
p1255
g11
sS'JULIE_AND_JULIA_DVS500'
p1256
g41
sS'CINDERELLA_MAN_DVS264'
p1257
g11
sS'ZOMBIELAND_DVS425'
p1258
g52
sS'HANSEL_GRETEL_WITCH_HUNTERS_DVS59'
p1259
g11
sS'IN_TIME_DVS394'
p1260
g9
sS'HANSEL_GRETEL_WITCH_HUNTERS_DVS244'
p1261
g11
sS'TOOTH_FAIRY_DVS833'
p1262
g41
sS'THE_ART_OF_GETTING_BY_DVS197'
p1263
g9
sS'A_GOOD_DAY_TO_DIE_HARD_DVS290'
p1264
g7
sS'MR_POPPERS_PENGUINS_DVS653'
p1265
g11
sS'THE_BIG_YEAR_DVS238'
p1266
g11
sS'TITANIC_2_DVS421'
p1267
g9
sS'THE_CALL_DVS797'
p1268
g11
sS'HUGO_DVS792'
p1269
g17
sS'FRIENDS_WITH_BENEFITS_DVS225'
p1270
g41
sS'THE_DESCENDANTS_DVS491'
p1271
g9
sS'HUGO_DVS199'
p1272
g9
sS'NO_STRINGS_ATTACHED_DVS214'
p1273
g11
sS'NO_STRINGS_ATTACHED_DVS216'
p1274
g11
sS'21_JUMP_STREET_DVS418'
p1275
g52
sS'HUGO_DVS193'
p1276
g11
sS'SORCERERS_APPRENTICE_DVS128'
p1277
g63
sS'BAD_TEACHER_DVS188'
p1278
g27
sS'HANSEL_GRETEL_WITCH_HUNTERS_DVS117'
p1279
g11
sS'30_MINUTES_OR_LESS_DVS55'
p1280
g17
sS'CAPTAIN_AMERICA_DVS338'
p1281
g11
sS'COLOMBIANA_DVS165'
p1282
g11
sS'PERCY_JACKSON_LIGHTENING_THIEF_DVS379'
p1283
g27
sS'XMEN_FIRST_CLASS_DVS413'
p1284
g11
sS'ROBIN_HOOD_DVS244'
p1285
g9
sS'GREEN_ZONE_DVS440'
p1286
g27
sS'LIFE_OF_PI_DVS588'
p1287
g2
sS'ZOMBIELAND_DVS191'
p1288
g2
sS'GHOST_RIDER_SPIRIT_OF_VENGEANCE_DVS447'
p1289
g262
sS'GHOST_RIDER_SPIRIT_OF_VENGEANCE_DVS443'
p1290
g52
sS'THE_BOUNTY_HUNTER_DVS256'
p1291
g9
sS'GHOST_RIDER_SPIRIT_OF_VENGEANCE_DVS113'
p1292
g11
sS'CAPTAIN_AMERICA_DVS427'
p1293
g11
sS'ITS_COMPLICATED_DVS331'
p1294
g41
sS'A_GOOD_DAY_TO_DIE_HARD_DVS879'
p1295
g11
sS'ROBIN_HOOD_DVS338'
p1296
g9
sS'CAPTAIN_AMERICA_DVS50'
p1297
g2
sS'ABRAHAM_LINCOLN_VAMPIRE_HUNTER_DVS597'
p1298
g63
sS'ABRAHAM_LINCOLN_VAMPIRE_HUNTER_DVS596'
p1299
g63
sS'TRUE_GRIT_DVS473'
p1300
g27
sS'YOUNG_ADULT_DVS137'
p1301
g9
sS'GHOST_RIDER_SPIRIT_OF_VENGEANCE_DVS284'
p1302
g9
sS'SNOW_FLOWER_FD_DVS218'
p1303
g2
sS'CAPTAIN_AMERICA_DVS604'
p1304
g11
sS'WHATS_YOUR_NUMBER_DVS710'
p1305
g7
sS'GHOST_RIDER_SPIRIT_OF_VENGEANCE_DVS282'
p1306
g9
sS'CAPTAIN_AMERICA_DVS516'
p1307
g2
sS'CAPTAIN_AMERICA_DVS514'
p1308
g2
sS'BAD_TEACHER_DVS310'
p1309
g17
sS'WHATS_YOUR_NUMBER_DVS627'
p1310
g52
sS'KARATE_KID_DVS718'
p1311
g9
sS'THE_DESCENDANTS_DVS523'
p1312
g41
sS'GHOST_RIDER_SPIRIT_OF_VENGEANCE_DVS179'
p1313
g2
sS'LIFE_OF_PI_DVS853'
p1314
g11
sS'A_THOUSAND_WORDS_DVS194'
p1315
g9
sS'LIFE_OF_PI_DVS166'
p1316
g11
sS'LIFE_OF_PI_DVS164'
p1317
g262
sS'SNOW_FLOWER_FD_DVS502'
p1318
g2
sS'BIG_MOMMAS_LIKE_FATHER_LIKE_SON_DVS266'
p1319
S'annotated'
p1320
sS'THE_ADVENTURES_OF_TINTIN_DVS572'
p1321
g11
sS'IRON_MAN_2_DVS291'
p1322
g27
sS'KARATE_KID_DVS882'
p1323
g2
sS'COLOMBIANA_DVS82'
p1324
g262
sS'KARATE_KID_DVS1110'
p1325
g11
sS'THE_ART_OF_GETTING_BY_DVS255'
p1326
g9
sS'THE_WATCH_DVS395'
p1327
g27
sS'FLIGHT_DVS527'
p1328
g41
sS'IRON_MAN_2_DVS298'
p1329
g52
sS'COLOMBIANA_DVS88'
p1330
g41
sS'ABRAHAM_LINCOLN_VAMPIRE_HUNTER_DVS575'
p1331
g2
sS'SALT_DVS363'
p1332
g17
sS'KATY_PERRY_PART_OF_ME_DVS158'
p1333
g41
sS'BURLESQUE_DVS218'
p1334
g11
sS'KARATE_KID_DVS404'
p1335
g7
sS'THE_SOCIAL_NETWORK_DVS84'
p1336
g17
sS'BURLESQUE_DVS211'
p1337
g41
sS'TITANIC_1_DVS304'
p1338
g34
sS'COLOMBIANA_DVS444'
p1339
g63
sS'TITANIC_1_DVS301'
p1340
g34
sS'THE_SITTER_DVS144'
p1341
g27
sS'BLINDDATING_DVS239'
p1342
g27
sS'THE_SITTER_DVS141'
p1343
g52
sS'IRON_MAN_2_DVS180'
p1344
g11
sS'SUPER_8_DVS369'
p1345
g11
sS'XMEN_FIRST_CLASS_DVS1171'
p1346
g11
sS'THE_SOCIAL_NETWORK_DVS68'
p1347
g9
sS'LARRY_CROWNE_DVS188'
p1348
g9
sS'SUPER_8_DVS561'
p1349
g11
sS'THIS_MEANS_WAR_DVS528'
p1350
g52
sS'SUPER_8_DVS569'
p1351
g41
sS'ROBIN_HOOD_DVS320'
p1352
g9
sS'TITANIC_1_DVS271'
p1353
g7
sS'TITANIC_1_DVS270'
p1354
g11
sS'TITANIC_1_DVS275'
p1355
g11
sS'TITANIC_1_DVS274'
p1356
g11
sS'TITANIC_1_DVS277'
p1357
g11
sS'TITANIC_1_DVS276'
p1358
g11
sS'BATTLE_LOS_ANGELES_DVS613'
p1359
g7
sS'FLIGHT_DVS29'
p1360
g11
sS'KARATE_KID_DVS1241'
p1361
g9
sS'THE_CALL_DVS1111'
p1362
g11
sS'GROWN_UPS_DVS166'
p1363
g11
sS'THE_ADVENTURES_OF_TINTIN_DVS199'
p1364
g11
sS'RUBY_SPARKS_DVS305'
p1365
g11
sS'SUPER_8_DVS491'
p1366
g11
sS'PROMETHEUS_DVS809'
p1367
g11
sS'SUPER_8_DVS494'
p1368
g11
sS'PROMETHEUS_DVS804'
p1369
g63
sS'PUBLIC_ENEMIES_DVS320'
p1370
g9
sS'DEAR_JOHN_DVS159'
p1371
g7
sS'THE_ADVENTURES_OF_TINTIN_DVS685'
p1372
g11
sS'SNOW_FLOWER_FD_DVS724'
p1373
g41
sS'ABRAHAM_LINCOLN_VAMPIRE_HUNTER_DVS608'
p1374
g376
sS'SNOW_FLOWER_FD_DVS722'
p1375
g7
sS'THE_WATCH_DVS133'
p1376
g27
sS'COLOMBIANA_DVS610'
p1377
g34
sS'MORNING_GLORY_DVS398'
p1378
g17
sS'INSIDE_MAN_DVS46'
p1379
g7
sS'A_GOOD_DAY_TO_DIE_HARD_DVS727'
p1380
g11
sS'NANNY_MCPHEE_RETURNS_DVS205'
p1381
g34
sS'THE_GIRL_WITH_THE_DRAGON_TATTOO_DVS93'
p1382
g11
sS'LIFE_OF_PI_DVS675'
p1383
g2
sS'DEAR_JOHN_DVS307'
p1384
g11
sS'SUPER_8_DVS381'
p1385
g11
sS'PUBLIC_ENEMIES_DVS259'
p1386
g11
sS'JULIE_AND_JULIA_DVS462'
p1387
g17
sS'HUGO_DVS697'
p1388
g2
sS'THE_BOUNTY_HUNTER_DVS131'
p1389
g11
sS'HUGO_DVS691'
p1390
g11
sS'HUGO_DVS342'
p1391
g2
sS'A_GOOD_DAY_TO_DIE_HARD_DVS512'
p1392
g2
sS'THE_ADVENTURES_OF_TINTIN_DVS91'
p1393
g11
sS'THE_DESCENDANTS_DVS643'
p1394
g2
sS'THE_ADVENTURES_OF_TINTIN_DVS98'
p1395
g2
sS'DEAR_JOHN_DVS546'
p1396
g9
sS'SALT_DVS550'
p1397
g9
sS'BATTLE_LOS_ANGELES_DVS596'
p1398
g9
sS'SALT_DVS556'
p1399
g9
sS'GROWN_UPS_DVS182'
p1400
g11
sS'500DAYSOFSUMMER_DVS85'
p1401
g15
sS'500DAYSOFSUMMER_DVS84'
p1402
g17
sS'MORNING_GLORY_DVS388'
p1403
g27
sS'KATY_PERRY_PART_OF_ME_DVS117'
p1404
g27
sS'ITS_COMPLICATED_DVS16'
p1405
g41
sS'TOOTH_FAIRY_DVS623'
p1406
g2
sS'WE_BOUGHT_A_ZOO_DVS31'
p1407
g9
sS'TITANIC_2_DVS749'
p1408
g11
sS'HANSEL_GRETEL_WITCH_HUNTERS_DVS349'
p1409
g2
sS'THE_ART_OF_GETTING_BY_DVS185'
p1410
g9
sS'TITANIC_2_DVS743'
p1411
g9
sS'MORNING_GLORY_DVS378'
p1412
g11
sS'TITANIC_2_DVS745'
p1413
g2
sS'TITANIC_2_DVS747'
p1414
g11
sS'CHRONICLE_DVS66'
p1415
g7
sS'CHASING_MAVERICKS_DVS1005'
p1416
g2
sS'CHRONICLE_DVS65'
p1417
g7
sS'HUGO_DVS236'
p1418
g2
sS'ZOOKEEPER_DVS386'
p1419
g11
sS'21_JUMP_STREET_DVS427'
p1420
g11
sS'YOUNG_ADULT_DVS255'
p1421
g17
sS'A_GOOD_DAY_TO_DIE_HARD_DVS467'
p1422
g2
sS'THOR_DVS602'
p1423
g9
sS'MR_POPPERS_PENGUINS_DVS519'
p1424
g2
sS'40_YEAR_OLD_VIRGIN_DVS57'
p1425
g15
sS'ROBIN_HOOD_DVS507'
p1426
g27
sS'NO_STRINGS_ATTACHED_DVS379'
p1427
g9
sS'BATTLE_LOS_ANGELES_DVS374'
p1428
g17
sS'LIFE_OF_PI_DVS574'
p1429
g27
sS'JACK_AND_JILL_DVS395'
p1430
g9
sS'GHOST_RIDER_SPIRIT_OF_VENGEANCE_DVS438'
p1431
g11
sS'GHOST_RIDER_SPIRIT_OF_VENGEANCE_DVS439'
p1432
g63
sS'SORCERERS_APPRENTICE_DVS111'
p1433
g9
sS'FLIGHT_DVS145'
p1434
g11
sS'LIFE_OF_PI_DVS975'
p1435
g7
sS'A_GOOD_DAY_TO_DIE_HARD_DVS866'
p1436
g11
sS'ZOMBIELAND_DVS368'
p1437
g11
sS'THOR_DVS237'
p1438
g2
sS'ITS_COMPLICATED_DVS329'
p1439
g17
sS'IRON_MAN_2_DVS570'
p1440
g11
sS'DISTRICT_9_DVS267'
p1441
g262
sS'THE_ROOMMATE_DVS375'
p1442
g2
sS'CAPTAIN_AMERICA_DVS46'
p1443
g9
sS'CAPTAIN_AMERICA_DVS40'
p1444
g2
sS'LIFE_OF_PI_DVS482'
p1445
g34
sS'ABRAHAM_LINCOLN_VAMPIRE_HUNTER_DVS218'
p1446
g17
sS'PARENTAL_GUIDANCE_DVS72'
p1447
g11
sS'LIFE_OF_PI_DVS220'
p1448
g27
sS'THE_BIG_YEAR_DVS35'
p1449
g52
sS'30_MINUTES_OR_LESS_DVS210'
p1450
g11
sS'WHATS_YOUR_NUMBER_DVS654'
p1451
g9
sS'JUST_GO_WITH_IT_DVS280'
p1452
g2
sS'JUST_GO_WITH_IT_DVS287'
p1453
g41
sS'LIFE_OF_PI_DVS806'
p1454
g9
sS'PERCY_JACKSON_LIGHTENING_THIEF_DVS171'
p1455
g2
sS'THOR_DVS425'
p1456
g17
sS'PUBLIC_ENEMIES_DVS86'
p1457
g2
sS'CHASING_MAVERICKS_DVS492'
p1458
g262
sS'NANNY_MCPHEE_RETURNS_DVS53'
p1459
g11
sS'CHASING_MAVERICKS_DVS494'
p1460
g9
sS'LIFE_OF_PI_DVS396'
p1461
g63
sS'A_THOUSAND_WORDS_DVS188'
p1462
g15
sS'IDES_OF_MARCH_DVS164'
p1463
g9
sS'CHARLIE_ST_CLOUD_DVS278'
p1464
g11
sS'BIG_MOMMAS_LIKE_FATHER_LIKE_SON_DVS212'
p1465
g11
sS'LIFE_OF_PI_DVS620'
p1466
g9
sS'BIG_MOMMAS_LIKE_FATHER_LIKE_SON_DVS215'
p1467
g11
sS'BIG_MOMMAS_LIKE_FATHER_LIKE_SON_DVS219'
p1468
g2
sS'THE_ROOMMATE_DVS295'
p1469
g11
sS'KARATE_KID_DVS1101'
p1470
g11
sS'KATY_PERRY_PART_OF_ME_DVS160'
p1471
g41
sS'ABRAHAM_LINCOLN_VAMPIRE_HUNTER_DVS565'
p1472
g376
sS'FLIGHT_DVS398'
p1473
g2
sS'KATY_PERRY_PART_OF_ME_DVS168'
p1474
g41
sS'XMEN_FIRST_CLASS_DVS604'
p1475
g11
sS'NO_STRINGS_ATTACHED_DVS553'
p1476
g11
sS'KARATE_KID_DVS474'
p1477
g9
sS'TITANIC_1_DVS92'
p1478
g2
sS'KARATE_KID_DVS472'
p1479
g63
sS'ITS_COMPLICATED_DVS136'
p1480
g9
sS'ITS_COMPLICATED_DVS134'
p1481
g9
sS'BURLESQUE_DVS260'
p1482
g11
sS'BURLESQUE_DVS127'
p1483
g2
sS'TITANIC_1_DVS197'
p1484
g11
sS'TITANIC_1_DVS193'
p1485
g52
sS'XMEN_FIRST_CLASS_DVS849'
p1486
g7
sS'A_THOUSAND_WORDS_DVS362'
p1487
g11
sS'TITANIC_1_DVS199'
p1488
g11
sS'COLOMBIANA_DVS513'
p1489
g2
sS'THE_ADVENTURES_OF_TINTIN_DVS368'
p1490
g52
sS'SUPER_8_DVS552'
p1491
g11
sS'SUPER_8_DVS555'
p1492
g9
sS'SUPER_8_DVS556'
p1493
g11
sS'THIS_MEANS_WAR_DVS511'
p1494
g11
sS'SOUL_SURFER_DVS181'
p1495
g11
sS'KARATE_KID_DVS509'
p1496
g2
sS'XMEN_FIRST_CLASS_DVS920'
p1497
g9
sS'BIG_MOMMAS_LIKE_FATHER_LIKE_SON_DVS528'
p1498
g11
sS'BATTLE_LOS_ANGELES_DVS609'
p1499
g11
sS'GREEN_ZONE_DVS125'
p1500
g11
sS'HOW_DO_YOU_KNOW_DVS680'
p1501
g9
sS'30_MINUTES_OR_LESS_DVS157'
p1502
g11
sS'JULIE_AND_JULIA_DVS219'
p1503
g11
sS'30_MINUTES_OR_LESS_DVS152'
p1504
g7
sS'WE_BOUGHT_A_ZOO_DVS806'
p1505
g9
sS'EASY_A_DVS154'
p1506
g17
sS'IRON_MAN_2_DVS318'
p1507
g11
sS'THE_ADVENTURES_OF_TINTIN_DVS188'
p1508
g2
sS'WE_BOUGHT_A_ZOO_DVS147'
p1509
g7
sS'PUBLIC_ENEMIES_DVS480'
p1510
g11
sS'PARENTAL_GUIDANCE_DVS426'
p1511
g9
sS'500DAYSOFSUMMER_DVS396'
p1512
g15
sS'500DAYSOFSUMMER_DVS397'
p1513
g15
sS'WE_BOUGHT_A_ZOO_DVS148'
p1514
g7
sS'500DAYSOFSUMMER_DVS395'
p1515
g11
sS'BIG_MOMMAS_LIKE_FATHER_LIKE_SON_DVS149'
p1516
g7
sS'GREEN_ZONE_DVS64'
p1517
g9
sS'HOW_DO_YOU_KNOW_DVS358'
p1518
g52
sS'JULIE_AND_JULIA_DVS450'
p1519
g9
sS'HOW_DO_YOU_KNOW_DVS353'
p1520
g9
sS'THE_GIRL_WITH_THE_DRAGON_TATTOO_DVS139'
p1521
g7
sS'THE_BIG_YEAR_DVS525'
p1522
g11
sS'SPARKLE_2012_DVS480'
p1523
g63
sS'SUPER_8_DVS601'
p1524
g11
sS'PUBLIC_ENEMIES_DVS261'
p1525
g11
sS'THE_GIRL_WITH_THE_DRAGON_TATTOO_DVS84'
p1526
g11
sS'THE_VOW_DVS283'
p1527
g27
sS'THE_GUILT_TRIP_DVS109'
p1528
g9
sS'DEAR_JOHN_DVS338'
p1529
g41
sS'THE_BOUNTY_HUNTER_DVS126'
p1530
g11
sS'SUPER_8_DVS401'
p1531
g11
sS'THE_VOW_DVS268'
p1532
g9
sS'THE_BIG_YEAR_DVS412'
p1533
g27
sS'IN_TIME_DVS249'
p1534
g2
sS'SNOW_FLOWER_FD_DVS1410'
p1535
g11
sS'DEAR_JOHN_DVS448'
p1536
g9
sS'INSIDE_MAN_DVS175'
p1537
g262
sS'BIG_MOMMAS_LIKE_FATHER_LIKE_SON_DVS46'
p1538
g27
sS'THE_DESCENDANTS_DVS383'
p1539
g11
sS'BURLESQUE_DVS677'
p1540
g9
sS'THE_GIRL_WITH_THE_DRAGON_TATTOO_DVS714'
p1541
g27
sS'SALT_DVS546'
p1542
g9
sS'500DAYSOFSUMMER_DVS98'
p1543
g15
sS'500DAYSOFSUMMER_DVS93'
p1544
g9
sS'THE_DESCENDANTS_DVS257'
p1545
g27
sS'MR_POPPERS_PENGUINS_DVS186'
p1546
g11
sS'MR_POPPERS_PENGUINS_DVS187'
p1547
g27
sS'A_GOOD_DAY_TO_DIE_HARD_DVS678'
p1548
g15
sS'MR_POPPERS_PENGUINS_DVS211'
p1549
g11
sS'CHRONICLE_DVS410'
p1550
g11
sS'UGLY_TRUTH_DVS557'
p1551
g7
sS'LIFE_OF_PI_DVS978'
p1552
g11
sS'TOOTH_FAIRY_DVS706'
p1553
g27
sS'SALT_DVS430'
p1554
g52
sS'FRIENDS_WITH_BENEFITS_DVS43'
p1555
g41
sS'SALT_DVS434'
p1556
g11
sS'JUST_GO_WITH_IT_DVS113'
p1557
g11
sS'UGLY_TRUTH_DVS553'
p1558
g41
sS'BURLESQUE_DVS77'
p1559
g27
sS'MORNING_GLORY_DVS467'
p1560
g11
sS'ZOMBIELAND_DVS572'
p1561
g11
sS'HUGO_DVS224'
p1562
g7
sS'HUGO_DVS229'
p1563
g262
sS'TITANIC_2_DVS176'
p1564
g34
sS'HANSEL_GRETEL_WITCH_HUNTERS_DVS596'
p1565
g11
sS'FRIENDS_WITH_BENEFITS_DVS200'
p1566
g11
sS'THE_CALL_DVS203'
p1567
g17
sS'21_JUMP_STREET_DVS437'
p1568
g52
sS'THE_BOUNTY_HUNTER_DVS302'
p1569
g9
sS'MR_POPPERS_PENGUINS_DVS529'
p1570
g2
sS'SANCTUM_DVS113'
p1571
g2
sS'LIFE_OF_PI_DVS569'
p1572
g2
sS'ROBIN_HOOD_DVS511'
p1573
g11
sS'CAPTAIN_AMERICA_DVS282'
p1574
g11
sS'THE_CALL_DVS110'
p1575
g262
sS'CAPTAIN_AMERICA_DVS289'
p1576
g229
sS'THE_GIRL_WITH_THE_DRAGON_TATTOO_DVS1190'
p1577
g11
sS'GHOST_RIDER_SPIRIT_OF_VENGEANCE_DVS427'
p1578
g11
sS'CAPTAIN_AMERICA_DVS440'
p1579
g11
sS'CAPTAIN_AMERICA_DVS443'
p1580
g9
sS'CAPTAIN_AMERICA_DVS444'
p1581
g11
sS'CAPTAIN_AMERICA_DVS446'
p1582
g11
sS'ZOMBIELAND_DVS371'
p1583
g7
sS'DISTRICT_9_DVS272'
p1584
g11
sS'WE_BOUGHT_A_ZOO_DVS816'
p1585
g11
sS'ITS_COMPLICATED_DVS232'
p1586
g27
sS'ROBIN_HOOD_DVS56'
p1587
g262
sS'21_JUMP_STREET_DVS218'
p1588
g2
sS'CAPTAIN_AMERICA_DVS35'
p1589
g2
sS'CAPTAIN_AMERICA_DVS37'
p1590
g2
sS'CAPTAIN_AMERICA_DVS668'
p1591
g11
sS'YOUNG_ADULT_DVS119'
p1592
g17
sS'SANCTUM_DVS265'
p1593
g34
sS'YOUNG_ADULT_DVS111'
p1594
g9
sS'TITANIC_1_DVS261'
p1595
g52
sS'YOUNG_ADULT_DVS117'
p1596
g7
sS'SNOW_FLOWER_FD_DVS235'
p1597
g2
sS'LIFE_OF_PI_DVS700'
p1598
g34
sS'LIFE_OF_PI_DVS364'
p1599
g34
sS'LIFE_OF_PI_DVS811'
p1600
g9
sS'LIFE_OF_PI_DVS360'
p1601
g34
sS'ZOMBIELAND_DVS713'
p1602
g2
sS'SANCTUM_DVS249'
p1603
g34
sS'KARATE_KID_DVS1076'
p1604
g11
sS'CHASING_MAVERICKS_DVS487'
p1605
g41
sS'WHATS_YOUR_NUMBER_DVS462'
p1606
g63
sS'TRUE_GRIT_DVS521'
p1607
g17
sS'GHOST_RIDER_SPIRIT_OF_VENGEANCE_DVS549'
p1608
g11
sS'COLOMBIANA_DVS468'
p1609
g9
sS'LIFE_OF_PI_DVS144'
p1610
g262
sS'KARATE_KID_DVS866'
p1611
g27
sS'JACK_AND_JILL_DVS102'
p1612
g34
sS'A_THOUSAND_WORDS_DVS183'
p1613
g11
sS'HUGO_DVS805'
p1614
g2
sS'FLIGHT_DVS386'
p1615
g262
sS'KATY_PERRY_PART_OF_ME_DVS179'
p1616
g11
sS'WE_BOUGHT_A_ZOO_DVS335'
p1617
g11
sS'BURLESQUE_DVS276'
p1618
g2
sS'TITANIC_1_DVS187'
p1619
g7
sS'TITANIC_1_DVS183'
p1620
g2
sS'KARATE_KID_DVS1002'
p1621
g27
sS'THE_ADVENTURES_OF_TINTIN_DVS420'
p1622
g7
sS'KARATE_KID_DVS1009'
p1623
g27
sS'NANNY_MCPHEE_RETURNS_DVS477'
p1624
g11
sS'NANNY_MCPHEE_RETURNS_DVS473'
p1625
g11
sS'WE_BOUGHT_A_ZOO_DVS532'
p1626
g9
sS'BATTLE_LOS_ANGELES_DVS634'
p1627
g9
sS'BATTLE_LOS_ANGELES_DVS632'
p1628
g1320
sS'CHASING_MAVERICKS_DVS652'
p1629
g34
sS'COLOMBIANA_DVS677'
p1630
g807
sS'COLOMBIANA_DVS670'
p1631
g34
sS'BLINDDATING_DVS103'
p1632
g2
sS'HOW_DO_YOU_KNOW_DVS124'
p1633
g27
sS'UGLY_TRUTH_DVS510'
p1634
g7
sS'30_MINUTES_OR_LESS_DVS161'
p1635
g11
sS'RUBY_SPARKS_DVS327'
p1636
g2
sS'SALT_DVS157'
p1637
g11
sS'THIS_MEANS_WAR_DVS503'
p1638
g41
sS'500DAYSOFSUMMER_DVS380'
p1639
g41
sS'WE_BOUGHT_A_ZOO_DVS158'
p1640
g9
sS'KARATE_KID_DVS1399'
p1641
g11
sS'BIG_MOMMAS_LIKE_FATHER_LIKE_SON_DVS154'
p1642
g9
sS'DEAR_JOHN_DVS143'
p1643
g41
sS'PUBLIC_ENEMIES_DVS308'
p1644
g7
sS'JULIE_AND_JULIA_DVS334'
p1645
g9
sS'THE_ADVENTURES_OF_TINTIN_DVS645'
p1646
g2
sS'TRUE_GRIT_DVS421'
p1647
g27
sS'SUPER_8_DVS615'
p1648
g9
sS'MORNING_GLORY_DVS207'
p1649
g11
sS'SPARKLE_2012_DVS496'
p1650
g2
sS'SUPER_8_DVS619'
p1651
g41
sS'SUPER_8_DVS618'
p1652
g41
sS'THE_VOW_DVS294'
p1653
g9
sS'COLOMBIANA_DVS708'
p1654
g11
sS'GROWN_UPS_DVS174'
p1655
g11
sS'FLIGHT_DVS613'
p1656
g52
sS'MORNING_GLORY_DVS175'
p1657
g7
sS'TITANIC_1_DVS169'
p1658
g11
sS'THE_GIRL_WITH_THE_DRAGON_TATTOO_DVS652'
p1659
g9
sS'BIG_MOMMAS_LIKE_FATHER_LIKE_SON_DVS78'
p1660
g9
sS'THE_GIRL_WITH_THE_DRAGON_TATTOO_DVS870'
p1661
g9
sS'DEAR_JOHN_DVS456'
p1662
g11
sS'COLOMBIANA_DVS817'
p1663
g11
sS'COLOMBIANA_DVS816'
p1664
g45
sS'KARATE_KID_DVS1530'
p1665
g11
sS'CAPTAIN_AMERICA_DVS635'
p1666
g2
sS'HUGO_DVS223'
p1667
g9
sS'TITANIC_2_DVS616'
p1668
g11
sS'PARENTAL_GUIDANCE_DVS402'
p1669
g9
sS'DINNER_FOR_SCHMUCKS_DVS205'
p1670
g11
sS'MR_POPPERS_PENGUINS_DVS195'
p1671
g17
sS'IDES_OF_MARCH_DVS89'
p1672
g17
sS'THE_BIG_YEAR_DVS269'
p1673
g11
sS'HUGO_DVS780'
p1674
g41
sS'GHOST_RIDER_SPIRIT_OF_VENGEANCE_DVS602'
p1675
g9
sS'MR_POPPERS_PENGUINS_DVS201'
p1676
g27
sS'THE_DESCENDANTS_DVS533'
p1677
g9
sS'THINK_LIKE_A_MAN_DVS439'
p1678
g9
sS'THINK_LIKE_A_MAN_DVS432'
p1679
g9
sS'TITANIC_2_DVS764'
p1680
g11
sS'INSIDE_MAN_DVS387'
p1681
g2
sS'JUST_GO_WITH_IT_DVS108'
p1682
g11
sS'JUST_GO_WITH_IT_DVS104'
p1683
g11
sS'THE_ART_OF_GETTING_BY_DVS414'
p1684
g9
sS'30_MINUTES_OR_LESS_DVS69'
p1685
g34
sS'LARRY_CROWNE_DVS78'
p1686
g7
sS'HUGO_DVS680'
p1687
g2
sS'DISTRICT_9_DVS447'
p1688
g9
sS'SALT_DVS18'
p1689
g17
sS'HUGO_DVS258'
p1690
g11
sS'FRIENDS_WITH_BENEFITS_DVS278'
p1691
g2
sS'THE_CALL_DVS218'
p1692
g11
sS'TOOTH_FAIRY_DVS517'
p1693
g11
sS'TITANIC_2_DVS142'
p1694
g7
sS'WE_BOUGHT_A_ZOO_DVS824'
p1695
g9
sS'THE_CALL_DVS742'
p1696
g27
sS'THE_BOUNTY_HUNTER_DVS462'
p1697
g11
sS'ZOOKEEPER_DVS76'
p1698
g63
sS'IN_TIME_DVS188'
p1699
g11
sS'PARENTAL_GUIDANCE_DVS302'
p1700
g52
sS'ZOOKEEPER_DVS296'
p1701
g27
sS'CAPTAIN_AMERICA_DVS380'
p1702
g11
sS'COLOMBIANA_DVS995'
p1703
g52
sS'SORCERERS_APPRENTICE_DVS460'
p1704
g2
sS'THE_GIRL_WITH_THE_DRAGON_TATTOO_DVS1188'
p1705
g11
sS'30_MINUTES_OR_LESS_DVS266'
p1706
g17
sS'THE_GIRL_WITH_THE_DRAGON_TATTOO_DVS1187'
p1707
g11
sS'ROBIN_HOOD_DVS185'
p1708
g11
sS'THE_GIRL_WITH_THE_DRAGON_TATTOO_DVS1185'
p1709
g11
sS'HOW_DO_YOU_KNOW_DVS52'
p1710
g27
sS'A_GOOD_DAY_TO_DIE_HARD_DVS803'
p1711
g11
sS'PARENTAL_GUIDANCE_DVS239'
p1712
g11
sS'THE_DESCENDANTS_DVS721'
p1713
g17
sS'HOW_DO_YOU_KNOW_DVS55'
p1714
g17
sS'LIFE_OF_PI_DVS950'
p1715
g9
sS'ITS_COMPLICATED_DVS347'
p1716
g11
sS'BRUNO_DVS52'
p1717
g52
sS'KARATE_KID_DVS211'
p1718
g11
sS'KARATE_KID_DVS218'
p1719
g11
sS'IDES_OF_MARCH_DVS365'
p1720
g9
sS'GHOST_RIDER_SPIRIT_OF_VENGEANCE_DVS415'
p1721
g11
sS'COLOMBIANA_DVS386'
p1722
g2
sS'ROBIN_HOOD_DVS365'
p1723
g11
sS'COLOMBIANA_DVS382'
p1724
g807
sS'SANCTUM_DVS251'
p1725
g2
sS'SANCTUM_DVS255'
p1726
g2
sS'TITANIC_2_DVS31'
p1727
g11
sS'BATTLE_LOS_ANGELES_DVS384'
p1728
g11
sS'GHOST_RIDER_SPIRIT_OF_VENGEANCE_DVS564'
p1729
g63
sS'THE_BIG_YEAR_DVS293'
p1730
g27
sS'THE_BOUNTY_HUNTER_DVS510'
p1731
g11
sS'THE_BOUNTY_HUNTER_DVS511'
p1732
g2
sS'WHATS_YOUR_NUMBER_DVS679'
p1733
g11
sS'BATTLE_LOS_ANGELES_DVS285'
p1734
g27
sS'PERCY_JACKSON_LIGHTENING_THIEF_DVS154'
p1735
g9
sS'SANCTUM_DVS387'
p1736
g41
sS'SNOW_FLOWER_FD_DVS397'
p1737
g9
sS'CHARLIE_ST_CLOUD_DVS211'
p1738
g11
sS'BURLESQUE_DVS247'
p1739
g11
sS'BURLESQUE_DVS245'
p1740
g17
sS'DISTRICT_9_DVS824'
p1741
g114
sS'GHOST_RIDER_SPIRIT_OF_VENGEANCE_DVS495'
p1742
g9
sS'WHATS_YOUR_NUMBER_DVS696'
p1743
g11
sS'CHASING_MAVERICKS_DVS261'
p1744
g7
sS'WHATS_YOUR_NUMBER_DVS453'
p1745
g2
sS'WHATS_YOUR_NUMBER_DVS450'
p1746
g2
sS'BIG_MOMMAS_LIKE_FATHER_LIKE_SON_DVS237'
p1747
g7
sS'CAPTAIN_AMERICA_DVS126'
p1748
g229
sS'CAPTAIN_AMERICA_DVS125'
p1749
g11
sS'FLIGHT_DVS371'
p1750
g2
sS'IN_TIME_DVS860'
p1751
g9
sS'BIG_MOMMAS_LIKE_FATHER_LIKE_SON_DVS303'
p1752
g63
sS'BIG_MOMMAS_LIKE_FATHER_LIKE_SON_DVS307'
p1753
g63
sS'WE_BOUGHT_A_ZOO_DVS301'
p1754
g11
sS'COLOMBIANA_DVS697'
p1755
g11
sS'THE_ROOMMATE_DVS324'
p1756
g9
sS'XMEN_FIRST_CLASS_DVS822'
p1757
g27
sS'PROMETHEUS_DVS1076'
p1758
g2
sS'IDES_OF_MARCH_DVS129'
p1759
g9
sS'ABRAHAM_LINCOLN_VAMPIRE_HUNTER_DVS388'
p1760
g63
sS'UGLY_TRUTH_DVS322'
p1761
g9
sS'WE_BOUGHT_A_ZOO_DVS786'
p1762
g9
sS'CHASING_MAVERICKS_DVS349'
p1763
g34
sS'CHASING_MAVERICKS_DVS347'
p1764
g52
sS'GET_HIM_TO_THE_GREEK_DVS140'
p1765
g17
sS'BIG_MOMMAS_LIKE_FATHER_LIKE_SON_DVS493'
p1766
g41
sS'COLOMBIANA_DVS663'
p1767
g9
sS'UGLY_TRUTH_DVS529'
p1768
g2
sS'BIG_MOMMAS_LIKE_FATHER_LIKE_SON_DVS499'
p1769
g9
sS'A_THOUSAND_WORDS_DVS238'
p1770
g11
sS'THIS_MEANS_WAR_DVS150'
p1771
g52
sS'EASY_A_DVS175'
p1772
g41
sS'EASY_A_DVS174'
p1773
g41
sS'DEATH_AT_A_FUNERAL_DVS285'
p1774
g41
sS'NANNY_MCPHEE_RETURNS_DVS215'
p1775
g11
sS'EASY_A_DVS178'
p1776
g41
sS'KARATE_KID_DVS1386'
p1777
g7
sS'RUBY_SPARKS_DVS245'
p1778
g7
sS'PUBLIC_ENEMIES_DVS466'
p1779
g262
sS'KARATE_KID_DVS1389'
p1780
g11
sS'GHOST_RIDER_SPIRIT_OF_VENGEANCE_DVS62'
p1781
g9
sS'JULIE_AND_JULIA_DVS123'
p1782
g17
sS'PROMETHEUS_DVS838'
p1783
g9
sS'MORNING_GLORY_DVS166'
p1784
g27
sS'THE_CALL_DVS1096'
p1785
g11
sS'THE_ADVENTURES_OF_TINTIN_DVS656'
p1786
g27
sS'THE_GUILT_TRIP_DVS279'
p1787
g2
sS'SPARKLE_2012_DVS314'
p1788
g9
sS'GREEN_ZONE_DVS96'
p1789
g9
sS'SPARKLE_2012_DVS310'
p1790
g41
sS'SALT_DVS217'
p1791
g11
sS'40_YEAR_OLD_VIRGIN_DVS177'
p1792
g27
sS'PUBLIC_ENEMIES_DVS208'
p1793
g11
sS'TITANIC_1_DVS407'
p1794
g262
sS'TITANIC_1_DVS404'
p1795
g63
sS'TITANIC_1_DVS409'
p1796
g262
sS'LIFE_OF_PI_DVS1005'
p1797
g2
sS'LIFE_OF_PI_DVS1007'
p1798
g52
sS'COLOMBIANA_DVS718'
p1799
g9
sS'SNOW_FLOWER_FD_DVS603'
p1800
g11
sS'COLOMBIANA_DVS710'
p1801
g2
sS'JULIE_AND_JULIA_DVS475'
p1802
g9
sS'KARATE_KID_DVS1633'
p1803
g52
sS'LIFE_OF_PI_DVS816'
p1804
g34
sS'MORNING_GLORY_DVS298'
p1805
g9
sS'BIG_MOMMAS_LIKE_FATHER_LIKE_SON_DVS69'
p1806
g1320
sS'LAND_OF_THE_LOST_DVS128'
p1807
g27
sS'GHOST_RIDER_SPIRIT_OF_VENGEANCE_DVS82'
p1808
g11
sS'THE_BIG_YEAR_DVS387'
p1809
g52
sS'GHOST_RIDER_SPIRIT_OF_VENGEANCE_DVS81'
p1810
g11
sS'CHASING_MAVERICKS_DVS46'
p1811
g9
sS'SUPER_8_DVS83'
p1812
g9
sS'DEAR_JOHN_DVS265'
p1813
g9
sS'DEAR_JOHN_DVS593'
p1814
g11
sS'CHASING_MAVERICKS_DVS49'
p1815
g11
sS'TITANIC_2_DVS605'
p1816
g11
sS'DINNER_FOR_SCHMUCKS_DVS212'
p1817
g9
sS'21_JUMP_STREET_DVS473'
p1818
g63
sS'JUST_GO_WITH_IT_DVS131'
p1819
g34
sS'IN_TIME_DVS467'
p1820
g11
sS'GET_HIM_TO_THE_GREEK_DVS17'
p1821
g17
sS'HANSEL_GRETEL_WITCH_HUNTERS_DVS201'
p1822
g2
sS'SPARKLE_2012_DVS171'
p1823
g7
sS'SPARKLE_2012_DVS170'
p1824
g7
sS'INSIDE_MAN_DVS398'
p1825
g9
sS'THE_DESCENDANTS_DVS634'
p1826
g2
sS'COLOMBIANA_DVS1050'
p1827
g27
sS'CHARLIE_ST_CLOUD_DVS96'
p1828
g17
sS'THE_ART_OF_GETTING_BY_DVS131'
p1829
g9
sS'CHRONICLE_DVS531'
p1830
g52
sS'CHARLIE_ST_CLOUD_DVS75'
p1831
g2
sS'MR_POPPERS_PENGUINS_DVS308'
p1832
g11
sS'CHARLIE_ST_CLOUD_DVS185'
p1833
g2
sS'ZOOKEEPER_DVS351'
p1834
g17
sS'PARENTAL_GUIDANCE_DVS229'
p1835
g11
sS'MR_POPPERS_PENGUINS_DVS236'
p1836
g7
sS'IN_TIME_DVS190'
p1837
g7
sS'JUST_GO_WITH_IT_DVS347'
p1838
g7
sS'21_JUMP_STREET_DVS582'
p1839
g11
sS'PUBLIC_ENEMIES_DVS85'
p1840
g11
sS'ZOMBIELAND_DVS750'
p1841
g9
sS'21_JUMP_STREET_DVS345'
p1842
g11
sS'21_JUMP_STREET_DVS348'
p1843
g7
sS'THE_BOUNTY_HUNTER_DVS73'
p1844
g41
sS'THE_CALL_DVS172'
p1845
g17
sS'THINK_LIKE_A_MAN_DVS369'
p1846
g11
sS'CAPTAIN_AMERICA_DVS265'
p1847
g11
sS'ROBIN_HOOD_DVS195'
p1848
g7
sS'YOUNG_ADULT_DVS229'
p1849
g41
sS'CINDERELLA_MAN_DVS225'
p1850
g11
sS'HANSEL_GRETEL_WITCH_HUNTERS_DVS559'
p1851
g11
sS'SALT_DVS25'
p1852
g41
sS'HANSEL_GRETEL_WITCH_HUNTERS_DVS554'
p1853
g11
sS'ITS_COMPLICATED_DVS219'
p1854
g2
sS'IRON_MAN_2_DVS237'
p1855
g11
sS'SANCTUM_DVS483'
p1856
g9
sS'ITS_COMPLICATED_DVS210'
p1857
g41
sS'KARATE_KID_DVS208'
p1858
g11
sS'IDES_OF_MARCH_DVS373'
p1859
g7
sS'BRUNO_DVS47'
p1860
g11
sS'TRUE_GRIT_DVS308'
p1861
g52
sS'ZOOKEEPER_DVS132'
p1862
g52
sS'HUGO_DVS803'
p1863
g11
sS'THE_BIG_YEAR_DVS69'
p1864
g11
sS'GHOST_RIDER_SPIRIT_OF_VENGEANCE_DVS577'
p1865
g63
sS'PERCY_JACKSON_LIGHTENING_THIEF_DVS148'
p1866
g7
sS'LIFE_OF_PI_DVS831'
p1867
g34
sS'HUGO_DVS676'
p1868
g11
sS'LIFE_OF_PI_DVS835'
p1869
g34
sS'ZOMBIELAND_DVS732'
p1870
g2
sS'CAPTAIN_AMERICA_DVS123'
p1871
g229
sS'WE_BOUGHT_A_ZOO_DVS310'
p1872
g2
sS'WHATS_YOUR_NUMBER_DVS683'
p1873
g7
sS'DISTRICT_9_DVS831'
p1874
g2
sS'EASY_A_DVS306'
p1875
g114
sS'ABRAHAM_LINCOLN_VAMPIRE_HUNTER_DVS627'
p1876
g11
sS'FLIGHT_DVS94'
p1877
g2
sS'CAPTAIN_AMERICA_DVS134'
p1878
g52
sS'TITANIC_2_DVS721'
p1879
g11
sS'CAPTAIN_AMERICA_DVS647'
p1880
g7
sS'FLIGHT_DVS363'
p1881
g11
sS'CAPTAIN_AMERICA_DVS644'
p1882
g11
sS'DEAR_JOHN_DVS27'
p1883
g34
sS'PARENTAL_GUIDANCE_DVS29'
p1884
g41
sS'CAPTAIN_AMERICA_DVS138'
p1885
g41
sS'TITANIC_1_DVS85'
p1886
g11
sS'THE_WATCH_DVS225'
p1887
g7
sS'THOR_DVS502'
p1888
g11
sS'IRON_MAN_2_DVS656'
p1889
g11
sS'XMEN_FIRST_CLASS_DVS639'
p1890
g9
sS'TITANIC_1_DVS89'
p1891
g11
sS'THOR_DVS504'
p1892
g11
sS'THE_ROOMMATE_DVS316'
p1893
g9
sS'GREEN_ZONE_DVS177'
p1894
g9
sS'THE_ROOMMATE_DVS312'
p1895
g11
sS'SUPER_8_DVS521'
p1896
g11
sS'SUPER_8_DVS524'
p1897
g11
sS'LIFE_OF_PI_DVS706'
p1898
g2
sS'UGLY_TRUTH_DVS339'
p1899
g9
sS'DINNER_FOR_SCHMUCKS_DVS176'
p1900
g114
sS'A_THOUSAND_WORDS_DVS339'
p1901
g63
sS'THE_WATCH_DVS359'
p1902
g11
sS'THE_WATCH_DVS433'
p1903
g17
sS'BIG_MOMMAS_LIKE_FATHER_LIKE_SON_DVS557'
p1904
g41
sS'SANCTUM_DVS261'
p1905
g34
sS'CAPTAIN_AMERICA_DVS664'
p1906
g9
sS'XMEN_FIRST_CLASS_DVS1335'
p1907
g2
sS'THIS_MEANS_WAR_DVS367'
p1908
g17
sS'CAPTAIN_AMERICA_DVS667'
p1909
g11
sS'NANNY_MCPHEE_RETURNS_DVS418'
p1910
g9
sS'TITANIC_1_DVS235'
p1911
g11
sS'TITANIC_1_DVS230'
p1912
g2
sS'A_THOUSAND_WORDS_DVS201'
p1913
g2
sS'SUPER_8_DVS294'
p1914
g11
sS'30_MINUTES_OR_LESS_DVS347'
p1915
g102
sS'30_MINUTES_OR_LESS_DVS344'
p1916
g262
sS'30_MINUTES_OR_LESS_DVS340'
p1917
g9
sS'30_MINUTES_OR_LESS_DVS181'
p1918
g17
sS'JUST_GO_WITH_IT_DVS28'
p1919
g17
sS'NANNY_MCPHEE_RETURNS_DVS327'
p1920
g262
sS'UGLY_TRUTH_DVS535'
p1921
g11
sS'HUGO_DVS23'
p1922
g11
sS'UGLY_TRUTH_DVS539'
p1923
g63
sS'JULIE_AND_JULIA_DVS228'
p1924
g41
sS'IRON_MAN_2_DVS325'
p1925
g11
sS'PROMETHEUS_DVS730'
p1926
g11
sS'IRON_MAN_2_DVS434'
p1927
g27
sS'NANNY_MCPHEE_RETURNS_DVS80'
p1928
g11
sS'TITANIC_2_DVS706'
p1929
g9
sS'PUBLIC_ENEMIES_DVS473'
p1930
g11
sS'KNOCKED_UP_DVS151'
p1931
g17
sS'XMEN_FIRST_CLASS_DVS1029'
p1932
g17
sS'KNOCKED_UP_DVS154'
p1933
g9
sS'THOR_DVS29'
p1934
g9
sS'KNOCKED_UP_DVS158'
p1935
g11
s.