(dp0
S'KARATE_KID_DVS1602'
p1
S'annotated'
p2
sS'DINNER_FOR_SCHMUCKS_DVS429'
p3
g2
sS'KARATE_KID_DVS1607'
p4
g2
sS'DINNER_FOR_SCHMUCKS_DVS350'
p5
g2
sS'KARATE_KID_DVS1609'
p6
S'annotated'
p7
sS'THE_ADVENTURES_OF_TINTIN_DVS143'
p8
S'annotated'
p9
sS'PROMETHEUS_DVS357'
p10
g9
sS'THE_ADVENTURES_OF_TINTIN_DVS144'
p11
g9
sS'THE_VOW_DVS478'
p12
g9
sS'500DAYSOFSUMMER_DVS526'
p13
S'annotated'
p14
sS'SPARKLE_2012_DVS547'
p15
S'annotated'
p16
sS'GREEN_ZONE_DVS309'
p17
g9
sS'THE_SOCIAL_NETWORK_DVS157'
p18
S'annotated'
p19
sS'BATTLE_LOS_ANGELES_DVS83'
p20
g19
sS'BRUNO_DVS188'
p21
g2
sS'500DAYSOFSUMMER_DVS46'
p22
g7
sS'THE_GIRL_WITH_THE_DRAGON_TATTOO_DVS851'
p23
g2
sS'DEAR_JOHN_DVS70'
p24
g19
sS'DEAR_JOHN_DVS71'
p25
g16
sS'THE_GIRL_WITH_THE_DRAGON_TATTOO_DVS672'
p26
S'annotated'
p27
sS'INSIDE_MAN_DVS80'
p28
g27
sS'SPARKLE_2012_DVS300'
p29
g19
sS'PUBLIC_ENEMIES_DVS505'
p30
g19
sS'SUPER_8_DVS552'
p31
g9
sS'THOR_DVS558'
p32
g9
sS'DEAR_JOHN_DVS274'
p33
g19
sS'THIS_MEANS_WAR_DVS68'
p34
S'annotated'
p35
sS'DINNER_FOR_SCHMUCKS_DVS221'
p36
g9
sS'JUST_GO_WITH_IT_DVS125'
p37
g2
sS'IN_TIME_DVS453'
p38
g2
sS'JUST_GO_WITH_IT_DVS128'
p39
g27
sS'CHASING_MAVERICKS_DVS487'
p40
S'annotated'
p41
sS'WHATS_YOUR_NUMBER_DVS99'
p42
g41
sS'DEAR_JOHN_DVS475'
p43
g9
sS'COLOMBIANA_DVS906'
p44
g27
sS'DEAR_JOHN_DVS476'
p45
S'annotated'
p46
sS'BURLESQUE_DVS536'
p47
S'annotated'
p48
sS'THE_ART_OF_GETTING_BY_DVS303'
p49
g9
sS'THE_ART_OF_GETTING_BY_DVS300'
p50
g2
sS'THE_DESCENDANTS_DVS602'
p51
g2
sS'MORNING_GLORY_DVS337'
p52
S'annotated'
p53
sS'HUGO_DVS301'
p54
g2
sS'THE_GIRL_WITH_THE_DRAGON_TATTOO_DVS694'
p55
g19
sS'THE_GIRL_WITH_THE_DRAGON_TATTOO_DVS695'
p56
g19
sS'GREEN_ZONE_DVS64'
p57
g19
sS'THE_CALL_DVS901'
p58
g2
sS'PARENTAL_GUIDANCE_DVS327'
p59
g27
sS'LIFE_OF_PI_DVS806'
p60
g19
sS'CHASING_MAVERICKS_DVS327'
p61
g27
sS'CHARLIE_ST_CLOUD_DVS40'
p62
g9
sS'CHARLIE_ST_CLOUD_DVS43'
p63
g53
sS'A_GOOD_DAY_TO_DIE_HARD_DVS738'
p64
g7
sS'THOR_DVS644'
p65
S'annotated'
p66
sS'TOOTH_FAIRY_DVS572'
p67
g16
sS'THOR_DVS641'
p68
g66
sS'THE_CALL_DVS797'
p69
g9
sS'ITS_COMPLICATED_DVS59'
p70
g9
sS'ITS_COMPLICATED_DVS360'
p71
g16
sS'BAD_TEACHER_DVS287'
p72
g2
sS'SANCTUM_DVS121'
p73
g2
sS'A_GOOD_DAY_TO_DIE_HARD_DVS821'
p74
g9
sS'TITANIC_2_DVS235'
p75
g9
sS'NO_STRINGS_ATTACHED_DVS330'
p76
g9
sS'TITANIC_2_DVS239'
p77
g9
sS'YOUNG_ADULT_DVS367'
p78
g2
sS'YOUNG_ADULT_DVS360'
p79
g9
sS'YOUNG_ADULT_DVS362'
p80
g19
sS'ZOOKEEPER_DVS343'
p81
g19
sS'YOUNG_ADULT_DVS216'
p82
g27
sS'PARENTAL_GUIDANCE_DVS213'
p83
g9
sS'HANSEL_GRETEL_WITCH_HUNTERS_DVS528'
p84
g9
sS'BLINDDATING_DVS20'
p85
g16
sS'BLINDDATING_DVS28'
p86
g16
sS'IN_TIME_DVS256'
p87
g19
sS'EASY_A_DVS90'
p88
g53
sS'ITS_COMPLICATED_DVS380'
p89
g19
sS'HOW_DO_YOU_KNOW_DVS97'
p90
g66
sS'SANCTUM_DVS237'
p91
g35
sS'TRUE_GRIT_DVS225'
p92
g2
sS'ZOMBIELAND_DVS581'
p93
g66
sS'THE_BOUNTY_HUNTER_DVS539'
p94
g7
sS'GHOST_RIDER_SPIRIT_OF_VENGEANCE_DVS503'
p95
g19
sS'JACK_AND_JILL_DVS84'
p96
g7
sS'GHOST_RIDER_SPIRIT_OF_VENGEANCE_DVS504'
p97
g19
sS'THE_BIG_YEAR_DVS72'
p98
g9
sS'A_GOOD_DAY_TO_DIE_HARD_DVS917'
p99
g35
sS'CHARLIE_ST_CLOUD_DVS151'
p100
g27
sS'CINDERELLA_MAN_DVS61'
p101
g9
sS'CINDERELLA_MAN_DVS67'
p102
g53
sS'CHARLIE_ST_CLOUD_DVS159'
p103
g19
sS'21_JUMP_STREET_DVS150'
p104
S'annotated'
p105
sS'SNOW_FLOWER_FD_DVS377'
p106
g19
sS'TITANIC_2_DVS211'
p107
g9
sS'SNOW_FLOWER_FD_DVS373'
p108
g2
sS'PROMETHEUS_DVS97'
p109
g7
sS'A_THOUSAND_WORDS_DVS147'
p110
g9
sS'A_THOUSAND_WORDS_DVS144'
p111
g14
sS'A_THOUSAND_WORDS_DVS145'
p112
g2
sS'A_THOUSAND_WORDS_DVS140'
p113
g19
sS'ABRAHAM_LINCOLN_VAMPIRE_HUNTER_DVS635'
p114
g9
sS'ABRAHAM_LINCOLN_VAMPIRE_HUNTER_DVS632'
p115
g66
sS'GHOST_RIDER_SPIRIT_OF_VENGEANCE_DVS216'
p116
S'annotated'
p117
sS'WHATS_YOUR_NUMBER_DVS239'
p118
g27
sS'THE_ROOMMATE_DVS126'
p119
g9
sS'GHOST_RIDER_SPIRIT_OF_VENGEANCE_DVS186'
p120
g66
sS'GHOST_RIDER_SPIRIT_OF_VENGEANCE_DVS185'
p121
g9
sS'GHOST_RIDER_SPIRIT_OF_VENGEANCE_DVS182'
p122
g9
sS'TITANIC_1_DVS98'
p123
g19
sS'THOR_DVS517'
p124
g66
sS'SUPER_8_DVS510'
p125
g9
sS'SUPER_8_DVS511'
p126
g9
sS'SUPER_8_DVS513'
p127
g9
sS'XMEN_FIRST_CLASS_DVS1302'
p128
g9
sS'A_THOUSAND_WORDS_DVS325'
p129
g27
sS'BIG_MOMMAS_LIKE_FATHER_LIKE_SON_DVS368'
p130
g41
sS'THE_SITTER_DVS119'
p131
g19
sS'KARATE_KID_DVS946'
p132
g9
sS'BIG_MOMMAS_LIKE_FATHER_LIKE_SON_DVS568'
p133
g7
sS'BIG_MOMMAS_LIKE_FATHER_LIKE_SON_DVS565'
p134
g27
sS'KARATE_KID_DVS789'
p135
g27
sS'KARATE_KID_DVS788'
p136
g7
sS'IDES_OF_MARCH_DVS25'
p137
g7
sS'RUBY_SPARKS_DVS427'
p138
g27
sS'KARATE_KID_DVS548'
p139
g16
sS'A_THOUSAND_WORDS_DVS218'
p140
g16
sS'COLOMBIANA_DVS645'
p141
g19
sS'GET_HIM_TO_THE_GREEK_DVS129'
p142
g16
sS'RUBY_SPARKS_DVS192'
p143
g9
sS'HUGO_DVS58'
p144
g9
sS'HUGO_DVS59'
p145
g66
sS'HUGO_DVS57'
p146
g9
sS'JUST_GO_WITH_IT_DVS30'
p147
g41
sS'HUGO_DVS55'
p148
g9
sS'PUBLIC_ENEMIES_DVS198'
p149
g27
sS'TITANIC_1_DVS397'
p150
g2
sS'THE_ADVENTURES_OF_TINTIN_DVS417'
p151
g9
sS'DEAR_JOHN_DVS118'
p152
g35
sS'BIG_MOMMAS_LIKE_FATHER_LIKE_SON_DVS100'
p153
g27
sS'BIG_MOMMAS_LIKE_FATHER_LIKE_SON_DVS104'
p154
g53
sS'BIG_MOMMAS_LIKE_FATHER_LIKE_SON_DVS587'
p155
g9
sS'THE_ADVENTURES_OF_TINTIN_DVS675'
p156
g2
sS'MORNING_GLORY_DVS107'
p157
g19
sS'COLOMBIANA_DVS737'
p158
g53
sS'THE_GIRL_WITH_THE_DRAGON_TATTOO_DVS1421'
p159
g19
sS'CHASING_MAVERICKS_DVS752'
p160
g9
sS'HOW_DO_YOU_KNOW_DVS390'
p161
g9
sS'NANNY_MCPHEE_RETURNS_DVS339'
p162
g16
sS'TITANIC_1_DVS172'
p163
g19
sS'TITANIC_1_DVS173'
p164
g9
sS'NANNY_MCPHEE_RETURNS_DVS337'
p165
g9
sS'UGLY_TRUTH_DVS495'
p166
g7
sS'UGLY_TRUTH_DVS492'
p167
g41
sS'A_THOUSAND_WORDS_DVS453'
p168
g16
sS'40_YEAR_OLD_VIRGIN_DVS111'
p169
g19
sS'JULIE_AND_JULIA_DVS564'
p170
g41
sS'LAND_OF_THE_LOST_DVS148'
p171
g7
sS'SPARKLE_2012_DVS56'
p172
g19
sS'THE_GIRL_WITH_THE_DRAGON_TATTOO_DVS662'
p173
g9
sS'500DAYSOFSUMMER_DVS177'
p174
g14
sS'PUBLIC_ENEMIES_DVS539'
p175
g19
sS'LITTLE_FOCKERS_DVS224'
p176
g41
sS'DEAR_JOHN_DVS246'
p177
g9
sS'30_MINUTES_OR_LESS_DVS313'
p178
g9
sS'THE_WATCH_DVS433'
p179
g16
sS'GREEN_ZONE_DVS207'
p180
g19
sS'MORNING_GLORY_DVS81'
p181
g53
sS'MORNING_GLORY_DVS85'
p182
g9
sS'THE_ADVENTURES_OF_TINTIN_DVS42'
p183
g19
sS'TITANIC_2_DVS481'
p184
g7
sS'THE_GIRL_WITH_THE_DRAGON_TATTOO_DVS64'
p185
g9
sS'IN_TIME_DVS448'
p186
g2
sS'MR_POPPERS_PENGUINS_DVS140'
p187
g27
sS'THE_ART_OF_GETTING_BY_DVS201'
p188
g2
sS'THE_CALL_DVS573'
p189
g2
sS'CINDERELLA_MAN_DVS419'
p190
g16
sS'THINK_LIKE_A_MAN_DVS392'
p191
g41
sS'TOOTH_FAIRY_DVS185'
p192
g19
sS'THE_DESCENDANTS_DVS348'
p193
g7
sS'IN_TIME_DVS201'
p194
g19
sS'THINK_LIKE_A_MAN_DVS408'
p195
g2
sS'HUGO_DVS460'
p196
g19
sS'HUGO_DVS467'
p197
g16
sS'TITANIC_2_DVS139'
p198
g9
sS'MR_POPPERS_PENGUINS_DVS493'
p199
g2
sS'FRIENDS_WITH_BENEFITS_DVS249'
p200
g2
sS'THE_ART_OF_GETTING_BY_DVS115'
p201
g19
sS'THE_ART_OF_GETTING_BY_DVS112'
p202
g27
sS'A_GOOD_DAY_TO_DIE_HARD_DVS54'
p203
g14
sS'THE_CALL_DVS484'
p204
g19
sS'THE_BOUNTY_HUNTER_DVS189'
p205
g27
sS'ABRAHAM_LINCOLN_VAMPIRE_HUNTER_DVS68'
p206
g19
sS'ITS_COMPLICATED_DVS399'
p207
g27
sS'THE_VOW_DVS52'
p208
g19
sS'FLIGHT_DVS139'
p209
g2
sS'TRUE_GRIT_DVS141'
p210
g35
sS'BATTLE_LOS_ANGELES_DVS634'
p211
g19
sS'IDES_OF_MARCH_DVS34'
p212
g7
sS'THE_BOUNTY_HUNTER_DVS253'
p213
g27
sS'THOR_DVS189'
p214
g66
sS'BATTLE_LOS_ANGELES_DVS250'
p215
g41
sS'COLOMBIANA_DVS677'
p216
S'annotated'
p217
sS'COLOMBIANA_DVS134'
p218
g16
sS'SANCTUM_DVS223'
p219
g2
sS'BURLESQUE_DVS383'
p220
g27
sS'TRUE_GRIT_DVS496'
p221
g19
sS'CHASING_MAVERICKS_DVS117'
p222
g9
sS'LIFE_OF_PI_DVS987'
p223
g35
sS'ZOMBIELAND_DVS224'
p224
g27
sS'GHOST_RIDER_SPIRIT_OF_VENGEANCE_DVS516'
p225
g9
sS'SNOW_FLOWER_FD_DVS964'
p226
g9
sS'CHARLIE_ST_CLOUD_DVS140'
p227
g9
sS'JUST_GO_WITH_IT_DVS258'
p228
g27
sS'ITS_COMPLICATED_DVS163'
p229
g16
sS'THINK_LIKE_A_MAN_DVS384'
p230
g2
sS'KARATE_KID_DVS319'
p231
g19
sS'CHASING_MAVERICKS_DVS200'
p232
S'annotated'
p233
sS'CAPTAIN_AMERICA_DVS584'
p234
g233
sS'TRUE_GRIT_DVS560'
p235
g2
sS'THE_ART_OF_GETTING_BY_DVS308'
p236
g19
sS'LIFE_OF_PI_DVS676'
p237
g35
sS'LIFE_OF_PI_DVS675'
p238
g2
sS'ABRAHAM_LINCOLN_VAMPIRE_HUNTER_DVS604'
p239
g2
sS'ABRAHAM_LINCOLN_VAMPIRE_HUNTER_DVS287'
p240
g2
sS'ABRAHAM_LINCOLN_VAMPIRE_HUNTER_DVS286'
p241
g9
sS'CAPTAIN_AMERICA_DVS113'
p242
g2
sS'THE_ROOMMATE_DVS158'
p243
g9
sS'GHOST_RIDER_SPIRIT_OF_VENGEANCE_DVS191'
p244
g27
sS'TITANIC_2_DVS662'
p245
g9
sS'KATY_PERRY_PART_OF_ME_DVS139'
p246
g9
sS'THOR_DVS526'
p247
g66
sS'THOR_DVS523'
p248
g9
sS'COLOMBIANA_DVS221'
p249
g19
sS'LIFE_OF_PI_DVS270'
p250
g2
sS'TITANIC_2_DVS660'
p251
g7
sS'SUPER_8_DVS507'
p252
g9
sS'SUPER_8_DVS505'
p253
g53
sS'SUPER_8_DVS509'
p254
g53
sS'XMEN_FIRST_CLASS_DVS1316'
p255
g19
sS'ABRAHAM_LINCOLN_VAMPIRE_HUNTER_DVS516'
p256
g9
sS'XMEN_FIRST_CLASS_DVS926'
p257
g16
sS'ABRAHAM_LINCOLN_VAMPIRE_HUNTER_DVS462'
p258
g19
sS'KARATE_KID_DVS820'
p259
g19
sS'WE_BOUGHT_A_ZOO_DVS803'
p260
g16
sS'BIG_MOMMAS_LIKE_FATHER_LIKE_SON_DVS572'
p261
g19
sS'BIG_MOMMAS_LIKE_FATHER_LIKE_SON_DVS576'
p262
g9
sS'WE_BOUGHT_A_ZOO_DVS772'
p263
g9
sS'THE_WATCH_DVS373'
p264
g19
sS'KARATE_KID_DVS552'
p265
S'annotated'
p266
sS'WE_BOUGHT_A_ZOO_DVS571'
p267
g19
sS'30_MINUTES_OR_LESS_DVS323'
p268
g41
sS'SALT_DVS157'
p269
g9
sS'A_THOUSAND_WORDS_DVS264'
p270
g2
sS'THE_WATCH_DVS559'
p271
g53
sS'THE_BOUNTY_HUNTER_DVS57'
p272
g19
sS'UGLY_TRUTH_DVS554'
p273
g2
sS'WE_BOUGHT_A_ZOO_DVS596'
p274
g19
sS'LITTLE_FOCKERS_DVS41'
p275
g27
sS'SALT_DVS117'
p276
g19
sS'UGLY_TRUTH_DVS551'
p277
g41
sS'GET_HIM_TO_THE_GREEK_DVS111'
p278
g7
sS'NANNY_MCPHEE_RETURNS_DVS185'
p279
g9
sS'BLINDDATING_DVS148'
p280
g19
sS'TITANIC_1_DVS387'
p281
g35
sS'UGLY_TRUTH_DVS313'
p282
g7
sS'TITANIC_1_DVS381'
p283
g9
sS'TITANIC_1_DVS382'
p284
g66
sS'KATY_PERRY_PART_OF_ME_DVS245'
p285
g66
sS'THIS_MEANS_WAR_DVS232'
p286
g9
sS'BIG_MOMMAS_LIKE_FATHER_LIKE_SON_DVS119'
p287
g53
sS'500DAYSOFSUMMER_DVS349'
p288
g7
sS'THE_GIRL_WITH_THE_DRAGON_TATTOO_DVS699'
p289
g2
sS'THE_WATCH_DVS159'
p290
g9
sS'BATTLE_LOS_ANGELES_DVS409'
p291
g9
sS'GREEN_ZONE_DVS364'
p292
g9
sS'BIG_MOMMAS_LIKE_FATHER_LIKE_SON_DVS596'
p293
g2
sS'KARATE_KID_DVS1370'
p294
g7
sS'KARATE_KID_DVS1372'
p295
g7
sS'MORNING_GLORY_DVS132'
p296
g16
sS'DINNER_FOR_SCHMUCKS_DVS401'
p297
g41
sS'HOW_DO_YOU_KNOW_DVS540'
p298
g19
sS'HOW_DO_YOU_KNOW_DVS388'
p299
g19
sS'KARATE_KID_DVS1399'
p300
g9
sS'PROMETHEUS_DVS971'
p301
g9
sS'WHATS_YOUR_NUMBER_DVS716'
p302
g9
sS'TITANIC_1_DVS165'
p303
g2
sS'SPARKLE_2012_DVS566'
p304
g41
sS'BIG_MOMMAS_LIKE_FATHER_LIKE_SON_DVS603'
p305
g9
sS'BIG_MOMMAS_LIKE_FATHER_LIKE_SON_DVS609'
p306
g9
sS'LAND_OF_THE_LOST_DVS171'
p307
g7
sS'500DAYSOFSUMMER_DVS66'
p308
g41
sS'500DAYSOFSUMMER_DVS65'
p309
g14
sS'THE_GIRL_WITH_THE_DRAGON_TATTOO_DVS836'
p310
g19
sS'SPARKLE_2012_DVS364'
p311
g27
sS'COLOMBIANA_DVS576'
p312
g19
sS'SNOW_FLOWER_FD_DVS1202'
p313
g7
sS'WE_BOUGHT_A_ZOO_DVS66'
p314
g2
sS'IN_TIME_DVS523'
p315
g9
sS'DEATH_AT_A_FUNERAL_DVS253'
p316
g19
sS'THE_ADVENTURES_OF_TINTIN_DVS283'
p317
g9
sS'THE_VOW_DVS129'
p318
g27
sS'TITANIC_2_DVS124'
p319
g9
sS'MR_POPPERS_PENGUINS_DVS701'
p320
g9
sS'CINDERELLA_MAN_DVS131'
p321
g27
sS'SALT_DVS482'
p322
g16
sS'TOOTH_FAIRY_DVS178'
p323
g19
sS'MORNING_GLORY_DVS482'
p324
g19
sS'THE_GIRL_WITH_THE_DRAGON_TATTOO_DVS306'
p325
g19
sS'SPARKLE_2012_DVS180'
p326
g19
sS'COLOMBIANA_DVS967'
p327
g46
sS'CINDERELLA_MAN_DVS221'
p328
g9
sS'FLIGHT_DVS909'
p329
g266
sS'KARATE_KID_DVS1407'
p330
g66
sS'THINK_LIKE_A_MAN_DVS166'
p331
g19
sS'LITTLE_FOCKERS_DVS155'
p332
g19
sS'HUGO_DVS457'
p333
g7
sS'THOR_DVS664'
p334
g9
sS'HANSEL_GRETEL_WITCH_HUNTERS_DVS321'
p335
g27
sS'THE_ART_OF_GETTING_BY_DVS103'
p336
g19
sS'A_GOOD_DAY_TO_DIE_HARD_DVS203'
p337
g2
sS'THE_ART_OF_GETTING_BY_DVS105'
p338
g7
sS'HANSEL_GRETEL_WITCH_HUNTERS_DVS326'
p339
g27
sS'HANSEL_GRETEL_WITCH_HUNTERS_DVS437'
p340
g2
sS'THE_ART_OF_GETTING_BY_DVS213'
p341
g19
sS'JUST_GO_WITH_IT_DVS318'
p342
g66
sS'PUBLIC_ENEMIES_DVS78'
p343
g2
sS'DISTRICT_9_DVS793'
p344
g9
sS'THE_VOW_DVS62'
p345
g16
sS'TITANIC_2_DVS212'
p346
g19
sS'TITANIC_2_DVS210'
p347
g9
sS'BAD_TEACHER_DVS133'
p348
g53
sS'FRIENDS_WITH_BENEFITS_DVS344'
p349
g41
sS'FRIENDS_WITH_BENEFITS_DVS346'
p350
g2
sS'HANSEL_GRETEL_WITCH_HUNTERS_DVS502'
p351
g9
sS'TITANIC_2_DVS454'
p352
g2
sS'THE_DESCENDANTS_DVS797'
p353
g19
sS'IDES_OF_MARCH_DVS21'
p354
g7
sS'THINK_LIKE_A_MAN_DVS218'
p355
g27
sS'CAPTAIN_AMERICA_DVS233'
p356
g9
sS'CAPTAIN_AMERICA_DVS230'
p357
g53
sS'CAPTAIN_AMERICA_DVS236'
p358
g9
sS'A_GOOD_DAY_TO_DIE_HARD_DVS688'
p359
g2
sS'SOUL_SURFER_DVS256'
p360
g19
sS'BATTLE_LOS_ANGELES_DVS244'
p361
g27
sS'COLOMBIANA_DVS104'
p362
g266
sS'CHASING_MAVERICKS_DVS164'
p363
g2
sS'YOUNG_ADULT_DVS411'
p364
g2
sS'THE_BOUNTY_HUNTER_DVS558'
p365
g266
sS'CAPTAIN_AMERICA_DVS343'
p366
g9
sS'THOR_DVS441'
p367
g53
sS'CHARLIE_ST_CLOUD_DVS176'
p368
g19
sS'JUST_GO_WITH_IT_DVS260'
p369
g27
sS'JUST_GO_WITH_IT_DVS266'
p370
g2
sS'THE_ADVENTURES_OF_TINTIN_DVS577'
p371
g9
sS'ITS_COMPLICATED_DVS154'
p372
g27
sS'PERCY_JACKSON_LIGHTENING_THIEF_DVS266'
p373
g9
sS'GHOST_RIDER_SPIRIT_OF_VENGEANCE_DVS525'
p374
g9
sS'GHOST_RIDER_SPIRIT_OF_VENGEANCE_DVS527'
p375
g9
sS'CAPTAIN_AMERICA_DVS560'
p376
g9
sS'LIFE_OF_PI_DVS888'
p377
g19
sS'GHOST_RIDER_SPIRIT_OF_VENGEANCE_DVS528'
p378
g9
sS'30_MINUTES_OR_LESS_DVS208'
p379
S'annotated'
p380
sS'THE_ROOMMATE_DVS142'
p381
g2
sS'PUBLIC_ENEMIES_DVS96'
p382
g9
sS'XMEN_FIRST_CLASS_DVS1084'
p383
g19
sS'JACK_AND_JILL_DVS155'
p384
g9
sS'KATY_PERRY_PART_OF_ME_DVS156'
p385
g9
sS'GREEN_ZONE_DVS180'
p386
g16
sS'KATY_PERRY_PART_OF_ME_DVS55'
p387
g7
sS'SOUL_SURFER_DVS253'
p388
g27
sS'KARATE_KID_DVS969'
p389
g9
sS'KARATE_KID_DVS965'
p390
g19
sS'KARATE_KID_DVS964'
p391
g2
sS'FLIGHT_DVS488'
p392
g2
sS'KARATE_KID_DVS769'
p393
g9
sS'XMEN_FIRST_CLASS_DVS952'
p394
g19
sS'IN_TIME_DVS950'
p395
g19
sS'THE_WATCH_DVS302'
p396
g66
sS'IRON_MAN_2_DVS593'
p397
g9
sS'BIG_MOMMAS_LIKE_FATHER_LIKE_SON_DVS294'
p398
g2
sS'IRON_MAN_2_DVS594'
p399
g9
sS'30_MINUTES_OR_LESS_DVS337'
p400
g9
sS'EASY_A_DVS133'
p401
g27
sS'SORCERERS_APPRENTICE_DVS416'
p402
g19
sS'TITANIC_2_DVS237'
p403
g9
sS'SUPER_8_DVS405'
p404
g9
sS'THE_ADVENTURES_OF_TINTIN_DVS273'
p405
g2
sS'ZOMBIELAND_DVS49'
p406
g9
sS'TITANIC_1_DVS286'
p407
g2
sS'THE_WATCH_DVS520'
p408
g9
sS'HOW_DO_YOU_KNOW_DVS151'
p409
g9
sS'HOW_DO_YOU_KNOW_DVS710'
p410
g16
sS'UGLY_TRUTH_DVS363'
p411
g41
sS'THE_WATCH_DVS410'
p412
g27
sS'THE_ADVENTURES_OF_TINTIN_DVS473'
p413
g66
sS'TITANIC_1_DVS374'
p414
g9
sS'WE_BOUGHT_A_ZOO_DVS124'
p415
g19
sS'RUBY_SPARKS_DVS574'
p416
g53
sS'THE_SOCIAL_NETWORK_DVS86'
p417
g41
sS'CHASING_MAVERICKS_DVS412'
p418
g2
sS'500DAYSOFSUMMER_DVS375'
p419
g14
sS'WE_BOUGHT_A_ZOO_DVS467'
p420
g19
sS'TITANIC_1_DVS305'
p421
g9
sS'HANSEL_GRETEL_WITCH_HUNTERS_DVS135'
p422
g9
sS'BURLESQUE_DVS213'
p423
g66
sS'RUBY_SPARKS_DVS378'
p424
g9
sS'TITANIC_1_DVS115'
p425
g9
sS'TITANIC_1_DVS116'
p426
g9
sS'SNOW_FLOWER_FD_DVS1053'
p427
g2
sS'TITANIC_1_DVS112'
p428
g2
sS'THE_SOCIAL_NETWORK_DVS163'
p429
g19
sS'HOW_DO_YOU_KNOW_DVS442'
p430
g16
sS'DEAR_JOHN_DVS28'
p431
g35
sS'LAND_OF_THE_LOST_DVS160'
p432
g27
sS'SPARKLE_2012_DVS228'
p433
g9
sS'THE_GIRL_WITH_THE_DRAGON_TATTOO_DVS822'
p434
g27
sS'500DAYSOFSUMMER_DVS150'
p435
g14
sS'DEAR_JOHN_DVS719'
p436
g19
sS'THE_BIG_YEAR_DVS587'
p437
g9
sS'21_JUMP_STREET_DVS36'
p438
g9
sS'DISTRICT_9_DVS439'
p439
g117
sS'BURLESQUE_DVS610'
p440
g9
sS'HANSEL_GRETEL_WITCH_HUNTERS_DVS484'
p441
g9
sS'INSIDE_MAN_DVS32'
p442
g9
sS'A_THOUSAND_WORDS_DVS273'
p443
g16
sS'THE_GIRL_WITH_THE_DRAGON_TATTOO_DVS220'
p444
g53
sS'YOUNG_ADULT_DVS90'
p445
g9
sS'TOOTH_FAIRY_DVS169'
p446
g2
sS'SUPER_8_DVS565'
p447
g9
sS'SALT_DVS107'
p448
g19
sS'COLOMBIANA_DVS976'
p449
g2
sS'COLOMBIANA_DVS977'
p450
g2
sS'TITANIC_2_DVS739'
p451
g9
sS'BURLESQUE_DVS565'
p452
g41
sS'TITANIC_2_DVS732'
p453
g2
sS'HUGO_DVS441'
p454
g9
sS'A_GOOD_DAY_TO_DIE_HARD_DVS560'
p455
g9
sS'IN_TIME_DVS556'
p456
g9
sS'THE_SITTER_DVS83'
p457
g9
sS'THE_SITTER_DVS84'
p458
g9
sS'THE_DESCENDANTS_DVS148'
p459
g35
sS'THINK_LIKE_A_MAN_DVS518'
p460
g19
sS'TITANIC_1_DVS280'
p461
g9
sS'THE_ART_OF_GETTING_BY_DVS263'
p462
g19
sS'TOOTH_FAIRY_DVS300'
p463
g27
sS'THE_BOUNTY_HUNTER_DVS432'
p464
g19
sS'PERCY_JACKSON_LIGHTENING_THIEF_DVS409'
p465
g2
sS'A_GOOD_DAY_TO_DIE_HARD_DVS304'
p466
g53
sS'ZOMBIELAND_DVS685'
p467
g66
sS'UGLY_TRUTH_DVS367'
p468
g16
sS'HANSEL_GRETEL_WITCH_HUNTERS_DVS422'
p469
g27
sS'MR_POPPERS_PENGUINS_DVS580'
p470
g16
sS'HANSEL_GRETEL_WITCH_HUNTERS_DVS426'
p471
g27
sS'TITANIC_2_DVS200'
p472
g19
sS'TOOTH_FAIRY_DVS436'
p473
g7
sS'TITANIC_2_DVS207'
p474
g9
sS'GREEN_ZONE_DVS34'
p475
g27
sS'THE_ADVENTURES_OF_TINTIN_DVS61'
p476
g2
sS'BURLESQUE_DVS395'
p477
g2
sS'TITANIC_2_DVS616'
p478
g9
sS'MR_POPPERS_PENGUINS_DVS344'
p479
g53
sS'CAPTAIN_AMERICA_DVS223'
p480
g9
sS'CAPTAIN_AMERICA_DVS226'
p481
g9
sS'DISTRICT_9_DVS546'
p482
g19
sS'WHATS_YOUR_NUMBER_DVS606'
p483
g9
sS'PERCY_JACKSON_LIGHTENING_THIEF_DVS313'
p484
g9
sS'PERCY_JACKSON_LIGHTENING_THIEF_DVS312'
p485
g9
sS'ROBIN_HOOD_DVS134'
p486
g9
sS'LIFE_OF_PI_DVS509'
p487
g2
sS'CAPTAIN_AMERICA_DVS355'
p488
g9
sS'LIFE_OF_PI_DVS506'
p489
g2
sS'IDES_OF_MARCH_DVS89'
p490
g16
sS'CAPTAIN_AMERICA_DVS352'
p491
g9
sS'A_GOOD_DAY_TO_DIE_HARD_DVS789'
p492
g9
sS'CHARLIE_ST_CLOUD_DVS168'
p493
g19
sS'CHARLIE_ST_CLOUD_DVS169'
p494
g53
sS'CHARLIE_ST_CLOUD_DVS162'
p495
g9
sS'CHARLIE_ST_CLOUD_DVS163'
p496
g53
sS'ABRAHAM_LINCOLN_VAMPIRE_HUNTER_DVS665'
p497
g9
sS'PERCY_JACKSON_LIGHTENING_THIEF_DVS272'
p498
g2
sS'COLOMBIANA_DVS209'
p499
g19
sS'ITS_COMPLICATED_DVS145'
p500
g7
sS'JACK_AND_JILL_DVS30'
p501
g7
sS'SANCTUM_DVS373'
p502
g19
sS'MR_POPPERS_PENGUINS_DVS612'
p503
g19
sS'LIFE_OF_PI_DVS472'
p504
g2
sS'ZOMBIELAND_DVS666'
p505
g53
sS'DISTRICT_9_DVS769'
p506
g9
sS'CAPTAIN_AMERICA_DVS174'
p507
g19
sS'THOR_DVS542'
p508
g9
sS'NO_STRINGS_ATTACHED_DVS388'
p509
g9
sS'KATY_PERRY_PART_OF_ME_DVS48'
p510
g7
sS'THE_ROOMMATE_DVS197'
p511
g9
sS'NO_STRINGS_ATTACHED_DVS122'
p512
g41
sS'TOOTH_FAIRY_DVS892'
p513
g16
sS'WHATS_YOUR_NUMBER_DVS575'
p514
g9
sS'THE_WATCH_DVS52'
p515
g9
sS'XMEN_FIRST_CLASS_DVS765'
p516
g27
sS'IDES_OF_MARCH_DVS191'
p517
g27
sS'WHATS_YOUR_NUMBER_DVS485'
p518
g16
sS'ABRAHAM_LINCOLN_VAMPIRE_HUNTER_DVS404'
p519
g9
sS'CINDERELLA_MAN_DVS69'
p520
g9
sS'FLIGHT_DVS1244'
p521
g41
sS'THE_WATCH_DVS319'
p522
g9
sS'CHRONICLE_DVS107'
p523
g9
sS'500DAYSOFSUMMER_DVS367'
p524
g19
sS'THE_DESCENDANTS_DVS39'
p525
g16
sS'SUPER_8_DVS412'
p526
g9
sS'THE_DESCENDANTS_DVS35'
p527
g16
sS'HUGO_DVS67'
p528
g2
sS'HUGO_DVS66'
p529
g2
sS'A_THOUSAND_WORDS_DVS246'
p530
g19
sS'A_THOUSAND_WORDS_DVS240'
p531
g9
sS'HUGO_DVS61'
p532
g9
sS'RUBY_SPARKS_DVS142'
p533
g9
sS'TITANIC_1_DVS290'
p534
g9
sS'KARATE_KID_DVS971'
p535
g27
sS'CHARLIE_ST_CLOUD_DVS289'
p536
g9
sS'XMEN_FIRST_CLASS_DVS1067'
p537
g2
sS'WE_BOUGHT_A_ZOO_DVS138'
p538
g19
sS'COLOMBIANA_DVS763'
p539
g9
sS'BATTLE_LOS_ANGELES_DVS467'
p540
g16
sS'KARATE_KID_DVS1314'
p541
g9
sS'GREEN_ZONE_DVS347'
p542
g19
sS'SUPER_8_DVS306'
p543
g9
sS'WE_BOUGHT_A_ZOO_DVS626'
p544
g9
sS'THIS_MEANS_WAR_DVS458'
p545
g66
sS'PROMETHEUS_DVS365'
p546
g9
sS'SPARKLE_2012_DVS504'
p547
g19
sS'SPARKLE_2012_DVS507'
p548
g9
sS'40_YEAR_OLD_VIRGIN_DVS121'
p549
S'annotated'
p550
sS'THE_SOCIAL_NETWORK_DVS112'
p551
g9
sS'XMEN_FIRST_CLASS_DVS1111'
p552
g7
sS'ITS_COMPLICATED_DVS7'
p553
g41
sS'KARATE_KID_DVS1081'
p554
g9
sS'UGLY_TRUTH_DVS603'
p555
g19
sS'GREEN_ZONE_DVS236'
p556
g19
sS'IRON_MAN_2_DVS43'
p557
g9
sS'THIS_MEANS_WAR_DVS26'
p558
g66
sS'THIS_MEANS_WAR_DVS22'
p559
g9
sS'BATTLE_LOS_ANGELES_DVS43'
p560
g27
sS'CHASING_MAVERICKS_DVS214'
p561
g66
sS'THE_VOW_DVS696'
p562
g19
sS'DEAR_JOHN_DVS631'
p563
g19
sS'A_THOUSAND_WORDS_DVS146'
p564
g14
sS'21_JUMP_STREET_DVS42'
p565
g9
sS'500DAYSOFSUMMER_DVS143'
p566
g14
sS'HUGO_DVS89'
p567
g16
sS'DEATH_AT_A_FUNERAL_DVS275'
p568
g2
sS'UGLY_TRUTH_DVS594'
p569
g19
sS'CINDERELLA_MAN_DVS335'
p570
g9
sS'TITANIC_1_DVS117'
p571
g9
sS'LITTLE_FOCKERS_DVS137'
p572
g27
sS'SPARKLE_2012_DVS232'
p573
g9
sS'THINK_LIKE_A_MAN_DVS348'
p574
g41
sS'SUPER_8_DVS125'
p575
g9
sS'MORNING_GLORY_DVS465'
p576
g9
sS'SPARKLE_2012_DVS239'
p577
g7
sS'TOOTH_FAIRY_DVS150'
p578
g19
sS'BURLESQUE_DVS571'
p579
g27
sS'KARATE_KID_DVS1424'
p580
g66
sS'THE_DESCENDANTS_DVS313'
p581
g19
sS'KARATE_KID_DVS1427'
p582
g53
sS'THE_BOUNTY_HUNTER_DVS398'
p583
g16
sS'HUGO_DVS128'
p584
g9
sS'HUGO_DVS438'
p585
g2
sS'MORNING_GLORY_DVS208'
p586
g9
sS'BRUNO_DVS127'
p587
g9
sS'MR_POPPERS_PENGUINS_DVS171'
p588
g9
sS'A_GOOD_DAY_TO_DIE_HARD_DVS171'
p589
g7
sS'THE_CALL_DVS218'
p590
g9
sS'THE_SOCIAL_NETWORK_DVS299'
p591
g9
sS'TOOTH_FAIRY_DVS330'
p592
g19
sS'HUGO_DVS722'
p593
g9
sS'HUGO_DVS721'
p594
g9
sS'HUGO_DVS726'
p595
g9
sS'HUGO_DVS729'
p596
g9
sS'THE_VOW_DVS85'
p597
g7
sS'BLINDDATING_DVS69'
p598
S'annotated'
p599
sS'PARENTAL_GUIDANCE_DVS252'
p600
g16
sS'PUBLIC_ENEMIES_DVS28'
p601
g19
sS'PUBLIC_ENEMIES_DVS50'
p602
g9
sS'PUBLIC_ENEMIES_DVS53'
p603
g9
sS'PUBLIC_ENEMIES_DVS52'
p604
g9
sS'21_JUMP_STREET_DVS395'
p605
g19
sS'LAND_OF_THE_LOST_DVS242'
p606
g9
sS'LAND_OF_THE_LOST_DVS246'
p607
g53
sS'CAPTAIN_AMERICA_DVS218'
p608
g53
sS'THE_CALL_DVS742'
p609
g27
sS'WHATS_YOUR_NUMBER_DVS77'
p610
g19
sS'CAPTAIN_AMERICA_DVS217'
p611
g9
sS'CAPTAIN_AMERICA_DVS211'
p612
g9
sS'21_JUMP_STREET_DVS448'
p613
g9
sS'JUST_GO_WITH_IT_DVS208'
p614
g53
sS'THE_BOUNTY_HUNTER_DVS462'
p615
g9
sS'CINDERELLA_MAN_DVS20'
p616
g9
sS'GHOST_RIDER_SPIRIT_OF_VENGEANCE_DVS322'
p617
g16
sS'GHOST_RIDER_SPIRIT_OF_VENGEANCE_DVS320'
p618
g53
sS'COLOMBIANA_DVS166'
p619
g66
sS'COLOMBIANA_DVS160'
p620
g9
sS'21_JUMP_STREET_DVS287'
p621
g14
sS'ZOMBIELAND_DVS274'
p622
g53
sS'THE_BOUNTY_HUNTER_DVS578'
p623
g7
sS'JUST_GO_WITH_IT_DVS347'
p624
g7
sS'ROBIN_HOOD_DVS214'
p625
g9
sS'21_JUMP_STREET_DVS665'
p626
g53
sS'GREEN_ZONE_DVS437'
p627
g9
sS'CAPTAIN_AMERICA_DVS540'
p628
g9
sS'CAPTAIN_AMERICA_DVS542'
p629
g266
sS'CAPTAIN_AMERICA_DVS545'
p630
g9
sS'ZOMBIELAND_DVS650'
p631
g9
sS'GHOST_RIDER_SPIRIT_OF_VENGEANCE_DVS252'
p632
g2
sS'ABRAHAM_LINCOLN_VAMPIRE_HUNTER_DVS277'
p633
g9
sS'JACK_AND_JILL_DVS402'
p634
g2
sS'DISTRICT_9_DVS207'
p635
g7
sS'FRIENDS_WITH_BENEFITS_DVS384'
p636
g266
sS'EASY_A_DVS51'
p637
g27
sS'BATTLE_LOS_ANGELES_DVS682'
p638
g53
sS'JULIE_AND_JULIA_DVS88'
p639
g27
sS'WHATS_YOUR_NUMBER_DVS743'
p640
g9
sS'WHATS_YOUR_NUMBER_DVS740'
p641
g7
sS'LIFE_OF_PI_DVS222'
p642
g19
sS'THE_ROOMMATE_DVS347'
p643
g19
sS'TITANIC_1_DVS37'
p644
g9
sS'SANCTUM_DVS417'
p645
g16
sS'SANCTUM_DVS410'
p646
g35
sS'SORCERERS_APPRENTICE_DVS99'
p647
g19
sS'KARATE_KID_DVS742'
p648
g19
sS'THE_WATCH_DVS328'
p649
g41
sS'21_JUMP_STREET_DVS266'
p650
g27
sS'ITS_COMPLICATED_DVS280'
p651
g7
sS'THE_WATCH_DVS322'
p652
g9
sS'21_JUMP_STREET_DVS269'
p653
g9
sS'SUPER_8_DVS229'
p654
g9
sS'LIFE_OF_PI_DVS139'
p655
g19
sS'IRON_MAN_2_DVS557'
p656
g9
sS'RUBY_SPARKS_DVS488'
p657
g9
sS'BLINDDATING_DVS196'
p658
g2
sS'TITANIC_1_DVS76'
p659
g9
sS'LAND_OF_THE_LOST_DVS29'
p660
g27
sS'DINNER_FOR_SCHMUCKS_DVS75'
p661
g16
sS'THE_ADVENTURES_OF_TINTIN_DVS457'
p662
g27
sS'CHARLIE_ST_CLOUD_DVS290'
p663
g9
sS'TITANIC_1_DVS357'
p664
g9
sS'UGLY_TRUTH_DVS340'
p665
g2
sS'BLINDDATING_DVS285'
p666
g9
sS'COLOMBIANA_DVS410'
p667
g2
sS'NANNY_MCPHEE_RETURNS_DVS35'
p668
g7
sS'THE_WATCH_DVS184'
p669
g2
sS'BURLESQUE_DVS746'
p670
g9
sS'LARRY_CROWNE_DVS138'
p671
g19
sS'HOW_DO_YOU_KNOW_DVS283'
p672
g27
sS'KARATE_KID_DVS1305'
p673
g9
sS'CINDERELLA_MAN_DVS37'
p674
g9
sS'THE_ADVENTURES_OF_TINTIN_DVS632'
p675
g9
sS'THE_ADVENTURES_OF_TINTIN_DVS636'
p676
g2
sS'NANNY_MCPHEE_RETURNS_DVS377'
p677
g2
sS'WE_BOUGHT_A_ZOO_DVS653'
p678
g9
sS'KATY_PERRY_PART_OF_ME_DVS321'
p679
g7
sS'TITANIC_1_DVS133'
p680
g9
sS'TITANIC_1_DVS130'
p681
g19
sS'500DAYSOFSUMMER_DVS227'
p682
g9
sS'KARATE_KID_DVS1091'
p683
g19
sS'NO_STRINGS_ATTACHED_DVS55'
p684
g9
sS'KARATE_KID_DVS1230'
p685
g19
sS'THIS_MEANS_WAR_DVS481'
p686
g266
sS'NANNY_MCPHEE_RETURNS_DVS390'
p687
g16
sS'THIS_MEANS_WAR_DVS34'
p688
g19
sS'BATTLE_LOS_ANGELES_DVS76'
p689
g19
sS'MORNING_GLORY_DVS68'
p690
g2
sS'IN_TIME_DVS607'
p691
g2
sS'TOOTH_FAIRY_DVS28'
p692
g19
sS'500DAYSOFSUMMER_DVS133'
p693
g14
sS'SANCTUM_DVS40'
p694
g27
sS'BATTLE_LOS_ANGELES_DVS527'
p695
g19
sS'BATTLE_LOS_ANGELES_DVS525'
p696
g19
sS'BATTLE_LOS_ANGELES_DVS524'
p697
g41
sS'BATTLE_LOS_ANGELES_DVS523'
p698
g9
sS'SPARKLE_2012_DVS394'
p699
g16
sS'MORNING_GLORY_DVS49'
p700
g41
sS'MORNING_GLORY_DVS46'
p701
g16
sS'THE_GIRL_WITH_THE_DRAGON_TATTOO_DVS1188'
p702
g9
sS'40_YEAR_OLD_VIRGIN_DVS209'
p703
g7
sS'THOR_DVS316'
p704
g9
sS'SUPER_8_DVS173'
p705
g9
sS'MORNING_GLORY_DVS476'
p706
g9
sS'MORNING_GLORY_DVS475'
p707
g9
sS'SUPER_8_DVS116'
p708
g9
sS'RUBY_SPARKS_DVS28'
p709
g9
sS'THE_ADVENTURES_OF_TINTIN_DVS69'
p710
g9
sS'CHARLIE_ST_CLOUD_DVS241'
p711
g9
sS'KARATE_KID_DVS1430'
p712
g7
sS'CHRONICLE_DVS30'
p713
g7
sS'A_GOOD_DAY_TO_DIE_HARD_DVS541'
p714
g9
sS'THE_CALL_DVS281'
p715
g19
sS'THE_ADVENTURES_OF_TINTIN_DVS91'
p716
g9
sS'IN_TIME_DVS574'
p717
g19
sS'THE_DESCENDANTS_DVS129'
p718
g2
sS'INSIDE_MAN_DVS318'
p719
g7
sS'IN_TIME_DVS778'
p720
g9
sS'CINDERELLA_MAN_DVS450'
p721
g7
sS'CINDERELLA_MAN_DVS456'
p722
g16
sS'MORNING_GLORY_DVS210'
p723
g9
sS'MORNING_GLORY_DVS216'
p724
g9
sS'MORNING_GLORY_DVS215'
p725
g9
sS'THE_GIRL_WITH_THE_DRAGON_TATTOO_DVS776'
p726
g27
sS'HUGO_DVS736'
p727
g2
sS'HUGO_DVS737'
p728
g27
sS'IN_TIME_DVS372'
p729
g35
sS'FRIENDS_WITH_BENEFITS_DVS177'
p730
g7
sS'ZOMBIELAND_DVS467'
p731
g16
sS'BLINDDATING_DVS79'
p732
g9
sS'FRIENDS_WITH_BENEFITS_DVS178'
p733
g7
sS'HANSEL_GRETEL_WITCH_HUNTERS_DVS440'
p734
g2
sS'THE_CALL_DVS199'
p735
g16
sS'CHASING_MAVERICKS_DVS1073'
p736
g27
sS'FRIENDS_WITH_BENEFITS_DVS26'
p737
g9
sS'TITANIC_2_DVS461'
p738
g19
sS'SALT_DVS81'
p739
g7
sS'EASY_A_DVS263'
p740
g9
sS'THE_WATCH_DVS543'
p741
g9
sS'XMEN_FIRST_CLASS_DVS567'
p742
g27
sS'21_JUMP_STREET_DVS454'
p743
g19
sS'PERCY_JACKSON_LIGHTENING_THIEF_DVS338'
p744
g2
sS'MR_POPPERS_PENGUINS_DVS434'
p745
g266
sS'COLOMBIANA_DVS176'
p746
S'annotated'
p747
sS'SORCERERS_APPRENTICE_DVS169'
p748
g9
sS'GHOST_RIDER_SPIRIT_OF_VENGEANCE_DVS333'
p749
g2
sS'COLOMBIANA_DVS171'
p750
g9
sS'BATTLE_LOS_ANGELES_DVS325'
p751
g2
sS'SORCERERS_APPRENTICE_DVS162'
p752
g16
sS'SORCERERS_APPRENTICE_DVS163'
p753
g7
sS'SUPER_8_DVS581'
p754
g9
sS'GREEN_ZONE_DVS18'
p755
g9
sS'JACK_AND_JILL_DVS322'
p756
g7
sS'THE_BOUNTY_HUNTER_DVS563'
p757
g19
sS'NO_STRINGS_ATTACHED_DVS97'
p758
g27
sS'IDES_OF_MARCH_DVS284'
p759
g2
sS'BATTLE_LOS_ANGELES_DVS328'
p760
g9
sS'ROBIN_HOOD_DVS202'
p761
g19
sS'ZOOKEEPER_DVS427'
p762
g19
sS'KARATE_KID_DVS351'
p763
g19
sS'ABRAHAM_LINCOLN_VAMPIRE_HUNTER_DVS640'
p764
g53
sS'XMEN_FIRST_CLASS_DVS1261'
p765
g9
sS'21_JUMP_STREET_DVS182'
p766
g9
sS'CAPTAIN_AMERICA_DVS558'
p767
g233
sS'CAPTAIN_AMERICA_DVS557'
p768
g233
sS'CAPTAIN_AMERICA_DVS556'
p769
g9
sS'THE_ROOMMATE_DVS98'
p770
g266
sS'GHOST_RIDER_SPIRIT_OF_VENGEANCE_DVS249'
p771
g117
sS'ZOMBIELAND_DVS312'
p772
g7
sS'JACK_AND_JILL_DVS436'
p773
g16
sS'JACK_AND_JILL_DVS434'
p774
g41
sS'THE_VOW_DVS201'
p775
g9
sS'PARENTAL_GUIDANCE_DVS84'
p776
g9
sS'EASY_A_DVS23'
p777
g19
sS'PERCY_JACKSON_LIGHTENING_THIEF_DVS258'
p778
g9
sS'JACK_AND_JILL_DVS184'
p779
g9
sS'WHATS_YOUR_NUMBER_DVS750'
p780
g9
sS'TITANIC_1_DVS250'
p781
g9
sS'CHASING_MAVERICKS_DVS335'
p782
g53
sS'CHASING_MAVERICKS_DVS331'
p783
g266
sS'KATY_PERRY_PART_OF_ME_DVS192'
p784
g2
sS'IN_TIME_DVS908'
p785
g9
sS'SOUL_SURFER_DVS226'
p786
g41
sS'JULIE_AND_JULIA_DVS316'
p787
g7
sS'THE_ROOMMATE_DVS400'
p788
g19
sS'THE_WATCH_DVS35'
p789
g9
sS'SNOW_FLOWER_FD_DVS495'
p790
g19
sS'BAD_TEACHER_DVS98'
p791
g27
sS'CAPTAIN_AMERICA_DVS554'
p792
g9
sS'WHATS_YOUR_NUMBER_DVS354'
p793
g16
sS'TITANIC_1_DVS556'
p794
g19
sS'TITANIC_2_DVS31'
p795
g9
sS'BURLESQUE_DVS360'
p796
g2
sS'COLOMBIANA_DVS314'
p797
g16
sS'CHARLIE_ST_CLOUD_DVS352'
p798
g19
sS'IDES_OF_MARCH_DVS129'
p799
g19
sS'KARATE_KID_DVS1159'
p800
g2
sS'NANNY_MCPHEE_RETURNS_DVS147'
p801
g19
sS'NANNY_MCPHEE_RETURNS_DVS493'
p802
g53
sS'IRON_MAN_2_DVS546'
p803
g9
sS'UGLY_TRUTH_DVS355'
p804
g16
sS'30_MINUTES_OR_LESS_DVS251'
p805
g9
sS'WE_BOUGHT_A_ZOO_DVS420'
p806
g16
sS'THOR_DVS82'
p807
g9
sS'TITANIC_1_DVS342'
p808
g9
sS'COLOMBIANA_DVS407'
p809
g217
sS'CHASING_MAVERICKS_DVS428'
p810
g2
sS'THE_ADVENTURES_OF_TINTIN_DVS489'
p811
g35
sS'SUPER_8_DVS94'
p812
g9
sS'HOW_DO_YOU_KNOW_DVS295'
p813
g9
sS'JULIE_AND_JULIA_DVS605'
p814
g19
sS'THE_ADVENTURES_OF_TINTIN_DVS480'
p815
g9
sS'THE_ADVENTURES_OF_TINTIN_DVS487'
p816
g66
sS'ITS_COMPLICATED_DVS16'
p817
g41
sS'COLOMBIANA_DVS733'
p818
g19
sS'ZOMBIELAND_DVS646'
p819
g9
sS'JULIE_AND_JULIA_DVS52'
p820
g19
sS'PROMETHEUS_DVS933'
p821
g53
sS'PROMETHEUS_DVS932'
p822
g9
sS'TITANIC_1_DVS127'
p823
g9
sS'GROWN_UPS_DVS15'
p824
g9
sS'XMEN_FIRST_CLASS_DVS1137'
p825
g2
sS'SPARKLE_2012_DVS526'
p826
g7
sS'SPARKLE_2012_DVS521'
p827
g41
sS'THE_ADVENTURES_OF_TINTIN_DVS155'
p828
g9
sS'30_MINUTES_OR_LESS_DVS100'
p829
g53
sS'FLIGHT_DVS66'
p830
g9
sS'UGLY_TRUTH_DVS623'
p831
g27
sS'SUPER_8_DVS213'
p832
g66
sS'500DAYSOFSUMMER_DVS120'
p833
g14
sS'500DAYSOFSUMMER_DVS433'
p834
g14
sS'THE_GUILT_TRIP_DVS281'
p835
g9
sS'THE_GUILT_TRIP_DVS283'
p836
g41
sS'PUBLIC_ENEMIES_DVS568'
p837
g9
sS'THE_GUILT_TRIP_DVS159'
p838
g16
sS'TOOTH_FAIRY_DVS306'
p839
g9
sS'THE_ART_OF_GETTING_BY_DVS265'
p840
g9
sS'MORNING_GLORY_DVS55'
p841
g9
sS'TITANIC_2_DVS747'
p842
g9
sS'40_YEAR_OLD_VIRGIN_DVS218'
p843
g9
sS'HUGO_DVS632'
p844
g53
sS'CINDERELLA_MAN_DVS264'
p845
g9
sS'DISTRICT_9_DVS824'
p846
g117
sS'NO_STRINGS_ATTACHED_DVS100'
p847
g9
sS'BRUNO_DVS109'
p848
g19
sS'COLOMBIANA_DVS817'
p849
g9
sS'THE_GIRL_WITH_THE_DRAGON_TATTOO_DVS347'
p850
g53
sS'A_GOOD_DAY_TO_DIE_HARD_DVS559'
p851
g14
sS'MR_POPPERS_PENGUINS_DVS609'
p852
g16
sS'BAD_TEACHER_DVS310'
p853
g16
sS'CHASING_MAVERICKS_DVS859'
p854
g266
sS'INSIDE_MAN_DVS257'
p855
g27
sS'HANSEL_GRETEL_WITCH_HUNTERS_DVS272'
p856
g27
sS'MR_POPPERS_PENGUINS_DVS114'
p857
g35
sS'TITANIC_2_DVS672'
p858
g9
sS'MR_POPPERS_PENGUINS_DVS111'
p859
g35
sS'BURLESQUE_DVS429'
p860
g2
sS'HUGO_DVS705'
p861
g19
sS'IN_TIME_DVS909'
p862
g19
sS'WHATS_YOUR_NUMBER_DVS576'
p863
g19
sS'MR_POPPERS_PENGUINS_DVS281'
p864
g41
sS'CINDERELLA_MAN_DVS481'
p865
g16
sS'BLINDDATING_DVS86'
p866
g48
sS'THE_CALL_DVS671'
p867
g7
sS'PUBLIC_ENEMIES_DVS31'
p868
g9
sS'THOR_DVS151'
p869
g66
sS'THINK_LIKE_A_MAN_DVS259'
p870
g7
sS'THE_DESCENDANTS_DVS448'
p871
g19
sS'BURLESQUE_DVS85'
p872
g16
sS'THE_BIG_YEAR_DVS203'
p873
g19
sS'YOUNG_ADULT_DVS49'
p874
g19
sS'HUGO_DVS148'
p875
g19
sS'CHRONICLE_DVS27'
p876
g7
sS'HUGO_DVS143'
p877
g9
sS'CHARLIE_ST_CLOUD_DVS136'
p878
g19
sS'21_JUMP_STREET_DVS462'
p879
g9
sS'21_JUMP_STREET_DVS464'
p880
g9
sS'GHOST_RIDER_SPIRIT_OF_VENGEANCE_DVS308'
p881
g19
sS'BATTLE_LOS_ANGELES_DVS202'
p882
g7
sS'IN_TIME_DVS860'
p883
g19
sS'A_THOUSAND_WORDS_DVS19'
p884
g7
sS'ZOOKEEPER_DVS214'
p885
g2
sS'IN_TIME_DVS176'
p886
g19
sS'CHASING_MAVERICKS_DVS591'
p887
g7
sS'HANSEL_GRETEL_WITCH_HUNTERS_DVS128'
p888
g27
sS'THE_BOUNTY_HUNTER_DVS352'
p889
g66
sS'ZOMBIELAND_DVS529'
p890
g16
sS'LARRY_CROWNE_DVS13'
p891
g27
sS'CAPTAIN_AMERICA_DVS308'
p892
g9
sS'JACK_AND_JILL_DVS332'
p893
g53
sS'JACK_AND_JILL_DVS192'
p894
g7
sS'GREEN_ZONE_DVS412'
p895
g9
sS'LIFE_OF_PI_DVS338'
p896
g7
sS'ZOMBIELAND_DVS639'
p897
g7
sS'LIFE_OF_PI_DVS423'
p898
g66
sS'LIFE_OF_PI_DVS426'
p899
g9
sS'JACK_AND_JILL_DVS425'
p900
g41
sS'EASY_A_DVS38'
p901
g9
sS'CHRONICLE_DVS133'
p902
g16
sS'WHATS_YOUR_NUMBER_DVS722'
p903
g9
sS'PERCY_JACKSON_LIGHTENING_THIEF_DVS135'
p904
g9
sS'PERCY_JACKSON_LIGHTENING_THIEF_DVS137'
p905
g2
sS'TITANIC_1_DVS309'
p906
g9
sS'THE_ROOMMATE_DVS375'
p907
g2
sS'GHOST_RIDER_SPIRIT_OF_VENGEANCE_DVS277'
p908
g19
sS'SALT_DVS282'
p909
g9
sS'IN_TIME_DVS916'
p910
g19
sS'ROBIN_HOOD_DVS22'
p911
g9
sS'IN_TIME_DVS57'
p912
g27
sS'ITS_COMPLICATED_DVS267'
p913
g19
sS'CHASING_MAVERICKS_DVS184'
p914
g9
sS'WHATS_YOUR_NUMBER_DVS435'
p915
g16
sS'NANNY_MCPHEE_RETURNS_DVS480'
p916
g9
sS'IRON_MAN_2_DVS537'
p917
g9
sS'IRON_MAN_2_DVS536'
p918
g9
sS'MORNING_GLORY_DVS490'
p919
g7
sS'FLIGHT_DVS511'
p920
g27
sS'A_THOUSAND_WORDS_DVS386'
p921
g2
sS'WHATS_YOUR_NUMBER_DVS696'
p922
g9
sS'IRON_MAN_2_DVS624'
p923
g19
sS'CHASING_MAVERICKS_DVS454'
p924
g35
sS'TITANIC_1_DVS332'
p925
g41
sS'BURLESQUE_DVS229'
p926
g27
sS'KATY_PERRY_PART_OF_ME_DVS234'
p927
g7
sS'TITANIC_1_DVS338'
p928
g9
sS'BIG_MOMMAS_LIKE_FATHER_LIKE_SON_DVS415'
p929
g19
sS'COLOMBIANA_DVS438'
p930
g9
sS'UGLY_TRUTH_DVS384'
p931
g19
sS'SUPER_8_DVS353'
p932
g9
sS'CHASING_MAVERICKS_DVS534'
p933
g16
sS'SNOW_FLOWER_FD_DVS683'
p934
g41
sS'IRON_MAN_2_DVS441'
p935
g2
sS'TITANIC_1_DVS248'
p936
g9
sS'TITANIC_1_DVS249'
p937
g9
sS'RUBY_SPARKS_DVS136'
p938
g9
sS'RUBY_SPARKS_DVS130'
p939
g35
sS'NANNY_MCPHEE_RETURNS_DVS153'
p940
g19
sS'CHRONICLE_DVS147'
p941
g27
sS'TITANIC_1_DVS247'
p942
g9
sS'ABRAHAM_LINCOLN_VAMPIRE_HUNTER_DVS423'
p943
g7
sS'GROWN_UPS_DVS68'
p944
g9
sS'WE_BOUGHT_A_ZOO_DVS679'
p945
g35
sS'COLOMBIANA_DVS886'
p946
g266
sS'THE_VOW_DVS480'
p947
g9
sS'DEATH_AT_A_FUNERAL_DVS228'
p948
g19
sS'LITTLE_FOCKERS_DVS243'
p949
g19
sS'LITTLE_FOCKERS_DVS241'
p950
g2
sS'THE_ADVENTURES_OF_TINTIN_DVS148'
p951
g9
sS'30_MINUTES_OR_LESS_DVS116'
p952
g380
sS'BATTLE_LOS_ANGELES_DVS542'
p953
g27
sS'TITANIC_1_DVS460'
p954
g35
sS'TITANIC_1_DVS461'
p955
g266
sS'THE_BIG_YEAR_DVS148'
p956
g9
sS'EASY_A_DVS193'
p957
g16
sS'THE_VOW_DVS700'
p958
g16
sS'SANCTUM_DVS22'
p959
g35
sS'21_JUMP_STREET_DVS73'
p960
g9
sS'SPARKLE_2012_DVS461'
p961
g16
sS'THE_BIG_YEAR_DVS569'
p962
g19
sS'HOW_DO_YOU_KNOW_DVS311'
p963
g16
sS'TITANIC_1_DVS183'
p964
g2
sS'SALT_DVS217'
p965
g9
sS'HUGO_DVS626'
p966
g2
sS'HUGO_DVS627'
p967
g7
sS'HUGO_DVS623'
p968
g16
sS'THOR_DVS372'
p969
g9
sS'MORNING_GLORY_DVS499'
p970
g9
sS'TOOTH_FAIRY_DVS120'
p971
g27
sS'TOOTH_FAIRY_DVS123'
p972
g2
sS'TOOTH_FAIRY_DVS122'
p973
g2
sS'THE_ADVENTURES_OF_TINTIN_DVS49'
p974
g9
sS'HUGO_DVS393'
p975
g27
sS'A_GOOD_DAY_TO_DIE_HARD_DVS529'
p976
g53
sS'MR_POPPERS_PENGUINS_DVS632'
p977
g9
sS'BATTLE_LOS_ANGELES_DVS374'
p978
g16
sS'A_GOOD_DAY_TO_DIE_HARD_DVS527'
p979
g9
sS'BURLESQUE_DVS439'
p980
g41
sS'40_YEAR_OLD_VIRGIN_DVS228'
p981
g9
sS'TITANIC_2_DVS663'
p982
g9
sS'40_YEAR_OLD_VIRGIN_DVS222'
p983
g2
sS'HUGO_DVS711'
p984
g9
sS'TITANIC_2_DVS665'
p985
g9
sS'MORNING_GLORY_DVS232'
p986
g16
sS'MORNING_GLORY_DVS234'
p987
g16
sS'THE_VOW_DVS155'
p988
g19
sS'SUPER_8_DVS27'
p989
g9
sS'DISTRICT_9_DVS505'
p990
g19
sS'CINDERELLA_MAN_DVS493'
p991
g7
sS'CINDERELLA_MAN_DVS491'
p992
g19
sS'IN_TIME_DVS136'
p993
g19
sS'ZOMBIELAND_DVS408'
p994
g9
sS'TOOTH_FAIRY_DVS673'
p995
g2
sS'FRIENDS_WITH_BENEFITS_DVS159'
p996
g66
sS'THE_CALL_DVS886'
p997
g19
sS'FRIENDS_WITH_BENEFITS_DVS151'
p998
g41
sS'TITANIC_2_DVS405'
p999
g19
sS'THOR_DVS168'
p1000
g9
sS'BURLESQUE_DVS97'
p1001
g27
sS'TOOTH_FAIRY_DVS582'
p1002
g9
sS'PUBLIC_ENEMIES_DVS86'
p1003
g2
sS'HUGO_DVS405'
p1004
g41
sS'JUST_GO_WITH_IT_DVS238'
p1005
g7
sS'CHARLIE_ST_CLOUD_DVS126'
p1006
g233
sS'CHARLIE_ST_CLOUD_DVS125'
p1007
g9
sS'A_GOOD_DAY_TO_DIE_HARD_DVS458'
p1008
g16
sS'JUST_GO_WITH_IT_DVS236'
p1009
g16
sS'GHOST_RIDER_SPIRIT_OF_VENGEANCE_DVS485'
p1010
g266
sS'IN_TIME_DVS627'
p1011
g19
sS'COLOMBIANA_DVS159'
p1012
g747
sS'SORCERERS_APPRENTICE_DVS144'
p1013
g16
sS'IN_TIME_DVS620'
p1014
g27
sS'COLOMBIANA_DVS150'
p1015
g66
sS'ZOOKEEPER_DVS229'
p1016
g66
sS'THE_BOUNTY_HUNTER_DVS345'
p1017
g66
sS'BAD_TEACHER_DVS162'
p1018
g7
sS'HANSEL_GRETEL_WITCH_HUNTERS_DVS138'
p1019
g9
sS'CAPTAIN_AMERICA_DVS313'
p1020
g233
sS'CAPTAIN_AMERICA_DVS312'
p1021
g9
sS'CAPTAIN_AMERICA_DVS314'
p1022
g9
sS'A_THOUSAND_WORDS_DVS28'
p1023
g14
sS'THE_GIRL_WITH_THE_DRAGON_TATTOO_DVS1398'
p1024
g19
sS'NO_STRINGS_ATTACHED_DVS344'
p1025
g16
sS'ROBIN_HOOD_DVS266'
p1026
g19
sS'THE_GIRL_WITH_THE_DRAGON_TATTOO_DVS1397'
p1027
g19
sS'GREEN_ZONE_DVS465'
p1028
g19
sS'CHASING_MAVERICKS_DVS522'
p1029
g747
sS'CAPTAIN_AMERICA_DVS535'
p1030
g9
sS'LIFE_OF_PI_DVS438'
p1031
g41
sS'ZOMBIELAND_DVS627'
p1032
g9
sS'THOR_DVS589'
p1033
g9
sS'LIFE_OF_PI_DVS978'
p1034
g9
sS'JACK_AND_JILL_DVS450'
p1035
g66
sS'ZOMBIELAND_DVS335'
p1036
g19
sS'ITS_COMPLICATED_DVS311'
p1037
g16
sS'XMEN_FIRST_CLASS_DVS434'
p1038
g66
sS'CAPTAIN_AMERICA_DVS76'
p1039
g7
sS'CAPTAIN_AMERICA_DVS78'
p1040
g2
sS'WHATS_YOUR_NUMBER_DVS738'
p1041
g2
sS'IN_TIME_DVS924'
p1042
g16
sS'BRUNO_DVS83'
p1043
g27
sS'IN_TIME_DVS922'
p1044
g9
sS'SNOW_FLOWER_FD_DVS273'
p1045
g266
sS'FLIGHT_DVS213'
p1046
g19
sS'SANCTUM_DVS428'
p1047
g2
sS'LIFE_OF_PI_DVS321'
p1048
g66
sS'DISTRICT_9_DVS650'
p1049
g117
sS'ZOMBIELAND_DVS751'
p1050
g2
sS'CHASING_MAVERICKS_DVS192'
p1051
g66
sS'LIFE_OF_PI_DVS694'
p1052
g66
sS'SORCERERS_APPRENTICE_DVS47'
p1053
g266
sS'ITS_COMPLICATED_DVS275'
p1054
g16
sS'ITS_COMPLICATED_DVS274'
p1055
g7
sS'ITS_COMPLICATED_DVS273'
p1056
g19
sS'CAPTAIN_AMERICA_DVS40'
p1057
g2
sS'WHATS_YOUR_NUMBER_DVS421'
p1058
g7
sS'THE_ADVENTURES_OF_TINTIN_DVS556'
p1059
g9
sS'JACK_AND_JILL_DVS31'
p1060
g9
sS'THIS_MEANS_WAR_DVS384'
p1061
g7
sS'KARATE_KID_DVS422'
p1062
g19
sS'SALT_DVS341'
p1063
g41
sS'ABRAHAM_LINCOLN_VAMPIRE_HUNTER_DVS353'
p1064
g9
sS'FLIGHT_DVS81'
p1065
g2
sS'KATY_PERRY_PART_OF_ME_DVS228'
p1066
g9
sS'TITANIC_1_DVS324'
p1067
g9
sS'BURLESQUE_DVS236'
p1068
g27
sS'COLOMBIANA_DVS420'
p1069
g2
sS'COLOMBIANA_DVS423'
p1070
g27
sS'COLOMBIANA_DVS426'
p1071
g27
sS'KARATE_KID_DVS1043'
p1072
g19
sS'SUPER_8_DVS343'
p1073
g19
sS'MR_POPPERS_PENGUINS_DVS30'
p1074
g16
sS'KARATE_KID_DVS1047'
p1075
g2
sS'RUBY_SPARKS_DVS216'
p1076
g9
sS'TITANIC_1_DVS259'
p1077
g9
sS'THE_CALL_DVS1096'
p1078
g9
sS'TITANIC_1_DVS251'
p1079
g9
sS'RUBY_SPARKS_DVS451'
p1080
g19
sS'KATY_PERRY_PART_OF_ME_DVS319'
p1081
g19
sS'TITANIC_1_DVS256'
p1082
g9
sS'GREEN_ZONE_DVS115'
p1083
g16
sS'TOOTH_FAIRY_DVS875'
p1084
g66
sS'TOOTH_FAIRY_DVS874'
p1085
g19
sS'JULIE_AND_JULIA_DVS240'
p1086
g7
sS'DEATH_AT_A_FUNERAL_DVS234'
p1087
g2
sS'GHOST_RIDER_SPIRIT_OF_VENGEANCE_DVS31'
p1088
g266
sS'DEATH_AT_A_FUNERAL_DVS237'
p1089
g41
sS'FLIGHT_DVS187'
p1090
g19
sS'RUBY_SPARKS_DVS672'
p1091
g9
sS'RUBY_SPARKS_DVS671'
p1092
g9
sS'GROWN_UPS_DVS142'
p1093
g41
sS'TITANIC_1_DVS475'
p1094
g35
sS'THE_BIG_YEAR_DVS171'
p1095
g9
sS'THE_BIG_YEAR_DVS174'
p1096
g9
sS'THE_BIG_YEAR_DVS176'
p1097
g7
sS'THE_VOW_DVS361'
p1098
g266
sS'DEAR_JOHN_DVS181'
p1099
g9
sS'THE_VOW_DVS366'
p1100
g53
sS'PUBLIC_ENEMIES_DVS618'
p1101
g19
sS'PUBLIC_ENEMIES_DVS619'
p1102
g19
sS'THE_DESCENDANTS_DVS90'
p1103
g19
sS'THE_DESCENDANTS_DVS91'
p1104
g9
sS'500DAYSOFSUMMER_DVS102'
p1105
g19
sS'SPARKLE_2012_DVS476'
p1106
g27
sS'21_JUMP_STREET_DVS88'
p1107
g14
sS'CHASING_MAVERICKS_DVS610'
p1108
g19
sS'COLOMBIANA_DVS632'
p1109
g19
sS'ZOMBIELAND_DVS669'
p1110
g53
sS'THE_CALL_DVS508'
p1111
g9
sS'EASY_A_DVS233'
p1112
g2
sS'PERCY_JACKSON_LIGHTENING_THIEF_DVS171'
p1113
g2
sS'IN_TIME_DVS383'
p1114
g35
sS'BATTLE_LOS_ANGELES_DVS485'
p1115
g16
sS'THE_ADVENTURES_OF_TINTIN_DVS53'
p1116
g9
sS'THE_ADVENTURES_OF_TINTIN_DVS52'
p1117
g2
sS'THINK_LIKE_A_MAN_DVS309'
p1118
g53
sS'GHOST_RIDER_SPIRIT_OF_VENGEANCE_DVS17'
p1119
g53
sS'HUGO_DVS361'
p1120
g19
sS'SPARKLE_2012_DVS293'
p1121
g19
sS'THE_BOUNTY_HUNTER_DVS110'
p1122
g7
sS'IN_TIME_DVS725'
p1123
g2
sS'DEAR_JOHN_DVS411'
p1124
g19
sS'TITANIC_2_DVS658'
p1125
g9
sS'HUGO_DVS766'
p1126
g53
sS'WHATS_YOUR_NUMBER_DVS734'
p1127
g7
sS'THE_BIG_YEAR_DVS190'
p1128
g16
sS'THE_BIG_YEAR_DVS197'
p1129
g27
sS'THE_VOW_DVS638'
p1130
g266
sS'HUGO_DVS505'
p1131
g35
sS'THE_ART_OF_GETTING_BY_DVS292'
p1132
g9
sS'FLIGHT_DVS183'
p1133
g117
sS'ZOMBIELAND_DVS437'
p1134
g7
sS'THE_ART_OF_GETTING_BY_DVS298'
p1135
g2
sS'NANNY_MCPHEE_RETURNS_DVS53'
p1136
g9
sS'IN_TIME_DVS380'
p1137
g35
sS'PARENTAL_GUIDANCE_DVS292'
p1138
g53
sS'COLOMBIANA_DVS1080'
p1139
g19
sS'THINK_LIKE_A_MAN_DVS472'
p1140
g19
sS'THE_DESCENDANTS_DVS460'
p1141
g9
sS'MR_POPPERS_PENGUINS_DVS625'
p1142
g27
sS'MR_POPPERS_PENGUINS_DVS624'
p1143
g27
sS'JUST_GO_WITH_IT_DVS145'
p1144
g9
sS'THE_BIG_YEAR_DVS226'
p1145
g53
sS'SALT_DVS403'
p1146
g9
sS'CHASING_MAVERICKS_DVS1027'
p1147
g19
sS'CHRONICLE_DVS43'
p1148
g27
sS'FRIENDS_WITH_BENEFITS_DVS73'
p1149
g9
sS'SORCERERS_APPRENTICE_DVS310'
p1150
g9
sS'FRIENDS_WITH_BENEFITS_DVS234'
p1151
g7
sS'PUBLIC_ENEMIES_DVS208'
p1152
g9
sS'XMEN_FIRST_CLASS_DVS530'
p1153
g2
sS'IN_TIME_DVS652'
p1154
g2
sS'HUGO_DVS183'
p1155
g19
sS'HUGO_DVS180'
p1156
g2
sS'YOUNG_ADULT_DVS274'
p1157
g7
sS'BIG_MOMMAS_LIKE_FATHER_LIKE_SON_DVS212'
p1158
g9
sS'THE_GIRL_WITH_THE_DRAGON_TATTOO_DVS1259'
p1159
g16
sS'LIFE_OF_PI_DVS620'
p1160
g19
sS'TOOTH_FAIRY_DVS486'
p1161
g19
sS'30_MINUTES_OR_LESS_DVS21'
p1162
S'annotated'
p1163
sS'PARENTAL_GUIDANCE_DVS349'
p1164
g16
sS'SANCTUM_DVS30'
p1165
g16
sS'CAPTAIN_AMERICA_DVS324'
p1166
g9
sS'ITS_COMPLICATED_DVS413'
p1167
g16
sS'LARRY_CROWNE_DVS39'
p1168
g27
sS'DISTRICT_9_DVS401'
p1169
g27
sS'THE_SITTER_DVS19'
p1170
g27
sS'YOUNG_ADULT_DVS388'
p1171
g19
sS'IDES_OF_MARCH_DVS256'
p1172
g19
sS'LIFE_OF_PI_DVS597'
p1173
g35
sS'ZOMBIELAND_DVS291'
p1174
g7
sS'PROMETHEUS_DVS1024'
p1175
g53
sS'THOR_DVS594'
p1176
g19
sS'BURLESQUE_DVS333'
p1177
g2
sS'SNOW_FLOWER_FD_DVS603'
p1178
g9
sS'SORCERERS_APPRENTICE_DVS87'
p1179
g16
sS'21_JUMP_STREET_DVS61'
p1180
g380
sS'WHATS_YOUR_NUMBER_DVS258'
p1181
g19
sS'LIFE_OF_PI_DVS774'
p1182
g19
sS'SNOW_FLOWER_FD_DVS204'
p1183
g9
sS'IN_TIME_DVS935'
p1184
g19
sS'IN_TIME_DVS934'
p1185
g16
sS'WHATS_YOUR_NUMBER_DVS702'
p1186
g9
sS'XMEN_FIRST_CLASS_DVS944'
p1187
g19
sS'KATY_PERRY_PART_OF_ME_DVS32'
p1188
g7
sS'WHATS_YOUR_NUMBER_DVS707'
p1189
g9
sS'LIFE_OF_PI_DVS778'
p1190
g27
sS'CAPTAIN_AMERICA_DVS506'
p1191
g19
sS'COLOMBIANA_DVS182'
p1192
g66
sS'IN_TIME_DVS75'
p1193
g2
sS'21_JUMP_STREET_DVS225'
p1194
g9
sS'WE_BOUGHT_A_ZOO_DVS275'
p1195
g16
sS'LIFE_OF_PI_DVS178'
p1196
g9
sS'LAND_OF_THE_LOST_DVS69'
p1197
g19
sS'THE_WATCH_DVS388'
p1198
g9
sS'KARATE_KID_DVS899'
p1199
g2
sS'THE_WATCH_DVS380'
p1200
g2
sS'UGLY_TRUTH_DVS257'
p1201
g9
sS'BIG_MOMMAS_LIKE_FATHER_LIKE_SON_DVS470'
p1202
g27
sS'FLIGHT_DVS530'
p1203
g41
sS'21_JUMP_STREET_DVS135'
p1204
g9
sS'TITANIC_1_DVS318'
p1205
g2
sS'BURLESQUE_DVS202'
p1206
g2
sS'TITANIC_1_DVS310'
p1207
g9
sS'TITANIC_1_DVS317'
p1208
g66
sS'ITS_COMPLICATED_DVS136'
p1209
g19
sS'SUPER_8_DVS579'
p1210
g9
sS'IRON_MAN_2_DVS514'
p1211
g9
sS'WE_BOUGHT_A_ZOO_DVS507'
p1212
g19
sS'RUBY_SPARKS_DVS115'
p1213
g9
sS'JULIE_AND_JULIA_DVS60'
p1214
g19
sS'TITANIC_1_DVS263'
p1215
g9
sS'RUBY_SPARKS_DVS447'
p1216
g7
sS'A_THOUSAND_WORDS_DVS299'
p1217
g9
sS'PROMETHEUS_DVS901'
p1218
g9
sS'30_MINUTES_OR_LESS_DVS138'
p1219
g380
sS'CHASING_MAVERICKS_DVS602'
p1220
g66
sS'TITANIC_1_DVS446'
p1221
g9
sS'KARATE_KID_DVS1580'
p1222
g66
sS'THE_CALL_DVS1108'
p1223
g27
sS'THE_ADVENTURES_OF_TINTIN_DVS164'
p1224
g53
sS'PUBLIC_ENEMIES_DVS338'
p1225
g19
sS'SUPER_8_DVS487'
p1226
g9
sS'SUPER_8_DVS485'
p1227
g2
sS'SUPER_8_DVS488'
p1228
g53
sS'COLOMBIANA_DVS628'
p1229
g2
sS'GHOST_RIDER_SPIRIT_OF_VENGEANCE_DVS20'
p1230
g27
sS'GHOST_RIDER_SPIRIT_OF_VENGEANCE_DVS22'
p1231
g9
sS'21_JUMP_STREET_DVS96'
p1232
g27
sS'COLOMBIANA_DVS627'
p1233
g35
sS'COLOMBIANA_DVS625'
p1234
g35
sS'KARATE_KID_DVS1472'
p1235
g27
sS'THINK_LIKE_A_MAN_DVS486'
p1236
g7
sS'THOR_DVS364'
p1237
g9
sS'INSIDE_MAN_DVS54'
p1238
g27
sS'INSIDE_MAN_DVS55'
p1239
g2
sS'CINDERELLA_MAN_DVS382'
p1240
g7
sS'SUPER_8_DVS620'
p1241
g41
sS'SUPER_8_DVS153'
p1242
g9
sS'BATTLE_LOS_ANGELES_DVS31'
p1243
g16
sS'SUPER_8_DVS83'
p1244
g19
sS'THE_GIRL_WITH_THE_DRAGON_TATTOO_DVS601'
p1245
g16
sS'SUPER_8_DVS393'
p1246
g19
sS'HUGO_DVS64'
p1247
g9
sS'INSIDE_MAN_DVS429'
p1248
g27
sS'KARATE_KID_DVS597'
p1249
g66
sS'IN_TIME_DVS738'
p1250
g9
sS'HUGO_DVS375'
p1251
g19
sS'IN_TIME_DVS731'
p1252
g9
sS'IN_TIME_DVS730'
p1253
g66
sS'TITANIC_1_DVS89'
p1254
g9
sS'THE_ADVENTURES_OF_TINTIN_DVS88'
p1255
g9
sS'THIS_MEANS_WAR_DVS98'
p1256
g19
sS'SOUL_SURFER_DVS51'
p1257
g9
sS'COLOMBIANA_DVS848'
p1258
g7
sS'HUGO_DVS777'
p1259
g19
sS'GET_HIM_TO_THE_GREEK_DVS140'
p1260
g16
sS'HUGO_DVS69'
p1261
g9
sS'JULIE_AND_JULIA_DVS500'
p1262
g41
sS'THINK_LIKE_A_MAN_DVS326'
p1263
g9
sS'ZOMBIELAND_DVS425'
p1264
g53
sS'HANSEL_GRETEL_WITCH_HUNTERS_DVS59'
p1265
g9
sS'IN_TIME_DVS394'
p1266
g19
sS'HANSEL_GRETEL_WITCH_HUNTERS_DVS244'
p1267
g9
sS'THE_ART_OF_GETTING_BY_DVS197'
p1268
g19
sS'A_GOOD_DAY_TO_DIE_HARD_DVS290'
p1269
g7
sS'MR_POPPERS_PENGUINS_DVS653'
p1270
g9
sS'THE_BIG_YEAR_DVS238'
p1271
g9
sS'TITANIC_2_DVS421'
p1272
g19
sS'THE_BIG_YEAR_DVS236'
p1273
g2
sS'FRIENDS_WITH_BENEFITS_DVS225'
p1274
g41
sS'THE_DESCENDANTS_DVS491'
p1275
g19
sS'HUGO_DVS199'
p1276
g19
sS'NO_STRINGS_ATTACHED_DVS214'
p1277
g9
sS'NO_STRINGS_ATTACHED_DVS216'
p1278
g9
sS'21_JUMP_STREET_DVS418'
p1279
g53
sS'HUGO_DVS193'
p1280
g9
sS'SORCERERS_APPRENTICE_DVS128'
p1281
g66
sS'BAD_TEACHER_DVS188'
p1282
g27
sS'HANSEL_GRETEL_WITCH_HUNTERS_DVS117'
p1283
g9
sS'30_MINUTES_OR_LESS_DVS55'
p1284
g16
sS'CAPTAIN_AMERICA_DVS338'
p1285
g9
sS'PERCY_JACKSON_LIGHTENING_THIEF_DVS379'
p1286
g27
sS'XMEN_FIRST_CLASS_DVS413'
p1287
g9
sS'ROBIN_HOOD_DVS244'
p1288
g19
sS'GREEN_ZONE_DVS440'
p1289
g27
sS'LIFE_OF_PI_DVS588'
p1290
g2
sS'ZOMBIELAND_DVS191'
p1291
g2
sS'GHOST_RIDER_SPIRIT_OF_VENGEANCE_DVS447'
p1292
g266
sS'GHOST_RIDER_SPIRIT_OF_VENGEANCE_DVS443'
p1293
g53
sS'THE_BOUNTY_HUNTER_DVS256'
p1294
g19
sS'GHOST_RIDER_SPIRIT_OF_VENGEANCE_DVS113'
p1295
g9
sS'CAPTAIN_AMERICA_DVS427'
p1296
g9
sS'ITS_COMPLICATED_DVS331'
p1297
g41
sS'A_GOOD_DAY_TO_DIE_HARD_DVS879'
p1298
g9
sS'ROBIN_HOOD_DVS338'
p1299
g19
sS'CAPTAIN_AMERICA_DVS50'
p1300
g2
sS'ABRAHAM_LINCOLN_VAMPIRE_HUNTER_DVS597'
p1301
g66
sS'ABRAHAM_LINCOLN_VAMPIRE_HUNTER_DVS596'
p1302
g66
sS'TRUE_GRIT_DVS473'
p1303
g27
sS'YOUNG_ADULT_DVS137'
p1304
g19
sS'GHOST_RIDER_SPIRIT_OF_VENGEANCE_DVS284'
p1305
g19
sS'SNOW_FLOWER_FD_DVS218'
p1306
g2
sS'CAPTAIN_AMERICA_DVS604'
p1307
g9
sS'WHATS_YOUR_NUMBER_DVS710'
p1308
g7
sS'GHOST_RIDER_SPIRIT_OF_VENGEANCE_DVS282'
p1309
g19
sS'CAPTAIN_AMERICA_DVS516'
p1310
g2
sS'CAPTAIN_AMERICA_DVS514'
p1311
g2
sS'PARENTAL_GUIDANCE_DVS383'
p1312
g19
sS'WHATS_YOUR_NUMBER_DVS627'
p1313
g53
sS'KARATE_KID_DVS718'
p1314
g19
sS'HANSEL_GRETEL_WITCH_HUNTERS_DVS201'
p1315
g2
sS'GHOST_RIDER_SPIRIT_OF_VENGEANCE_DVS179'
p1316
g2
sS'LIFE_OF_PI_DVS853'
p1317
g9
sS'A_THOUSAND_WORDS_DVS194'
p1318
g19
sS'LIFE_OF_PI_DVS166'
p1319
g9
sS'LIFE_OF_PI_DVS164'
p1320
g266
sS'SNOW_FLOWER_FD_DVS502'
p1321
g2
sS'BIG_MOMMAS_LIKE_FATHER_LIKE_SON_DVS266'
p1322
S'annotated'
p1323
sS'THE_ADVENTURES_OF_TINTIN_DVS572'
p1324
g9
sS'IRON_MAN_2_DVS291'
p1325
g27
sS'KARATE_KID_DVS882'
p1326
g2
sS'COLOMBIANA_DVS82'
p1327
g266
sS'KARATE_KID_DVS1110'
p1328
g9
sS'THE_ART_OF_GETTING_BY_DVS255'
p1329
g19
sS'THE_WATCH_DVS395'
p1330
g27
sS'FLIGHT_DVS527'
p1331
g41
sS'IRON_MAN_2_DVS298'
p1332
g53
sS'COLOMBIANA_DVS88'
p1333
g41
sS'ABRAHAM_LINCOLN_VAMPIRE_HUNTER_DVS575'
p1334
g2
sS'SALT_DVS363'
p1335
g16
sS'KATY_PERRY_PART_OF_ME_DVS158'
p1336
g41
sS'BURLESQUE_DVS218'
p1337
g9
sS'KARATE_KID_DVS404'
p1338
g7
sS'THE_SOCIAL_NETWORK_DVS84'
p1339
g16
sS'BURLESQUE_DVS211'
p1340
g41
sS'TITANIC_1_DVS304'
p1341
g35
sS'COLOMBIANA_DVS444'
p1342
g66
sS'TITANIC_1_DVS301'
p1343
g35
sS'THE_SITTER_DVS144'
p1344
g27
sS'BLINDDATING_DVS239'
p1345
g27
sS'THE_SITTER_DVS141'
p1346
g53
sS'IRON_MAN_2_DVS180'
p1347
g9
sS'SUPER_8_DVS369'
p1348
g9
sS'XMEN_FIRST_CLASS_DVS1171'
p1349
g9
sS'THE_SOCIAL_NETWORK_DVS68'
p1350
g19
sS'LARRY_CROWNE_DVS188'
p1351
g19
sS'SUPER_8_DVS561'
p1352
g9
sS'THIS_MEANS_WAR_DVS528'
p1353
g53
sS'SUPER_8_DVS569'
p1354
g41
sS'ROBIN_HOOD_DVS320'
p1355
g19
sS'TITANIC_1_DVS271'
p1356
g7
sS'TITANIC_1_DVS270'
p1357
g9
sS'TITANIC_1_DVS275'
p1358
g9
sS'TITANIC_1_DVS274'
p1359
g9
sS'TITANIC_1_DVS277'
p1360
g9
sS'TITANIC_1_DVS276'
p1361
g9
sS'BATTLE_LOS_ANGELES_DVS613'
p1362
g7
sS'FLIGHT_DVS29'
p1363
g9
sS'KARATE_KID_DVS1241'
p1364
g19
sS'THE_CALL_DVS1111'
p1365
g9
sS'GROWN_UPS_DVS166'
p1366
g9
sS'THE_ADVENTURES_OF_TINTIN_DVS199'
p1367
g9
sS'RUBY_SPARKS_DVS305'
p1368
g9
sS'SUPER_8_DVS491'
p1369
g9
sS'PROMETHEUS_DVS809'
p1370
g9
sS'SUPER_8_DVS494'
p1371
g9
sS'PROMETHEUS_DVS804'
p1372
g66
sS'PUBLIC_ENEMIES_DVS320'
p1373
g19
sS'PUBLIC_ENEMIES_DVS480'
p1374
g9
sS'THE_ADVENTURES_OF_TINTIN_DVS685'
p1375
g9
sS'SNOW_FLOWER_FD_DVS724'
p1376
g41
sS'ABRAHAM_LINCOLN_VAMPIRE_HUNTER_DVS608'
p1377
g380
sS'SNOW_FLOWER_FD_DVS722'
p1378
g7
sS'THE_WATCH_DVS133'
p1379
g27
sS'COLOMBIANA_DVS610'
p1380
g35
sS'MORNING_GLORY_DVS398'
p1381
g16
sS'INSIDE_MAN_DVS46'
p1382
g7
sS'CHRONICLE_DVS531'
p1383
g53
sS'500DAYSOFSUMMER_DVS395'
p1384
g9
sS'THE_GIRL_WITH_THE_DRAGON_TATTOO_DVS93'
p1385
g9
sS'A_THOUSAND_WORDS_DVS138'
p1386
g2
sS'DEAR_JOHN_DVS307'
p1387
g9
sS'SUPER_8_DVS381'
p1388
g9
sS'PUBLIC_ENEMIES_DVS259'
p1389
g9
sS'JULIE_AND_JULIA_DVS462'
p1390
g16
sS'HUGO_DVS697'
p1391
g2
sS'THE_BOUNTY_HUNTER_DVS131'
p1392
g9
sS'HUGO_DVS691'
p1393
g9
sS'HUGO_DVS342'
p1394
g2
sS'A_GOOD_DAY_TO_DIE_HARD_DVS512'
p1395
g2
sS'A_GOOD_DAY_TO_DIE_HARD_DVS516'
p1396
g9
sS'THE_DESCENDANTS_DVS643'
p1397
g2
sS'THE_ADVENTURES_OF_TINTIN_DVS98'
p1398
g2
sS'DEAR_JOHN_DVS546'
p1399
g19
sS'SALT_DVS550'
p1400
g19
sS'BATTLE_LOS_ANGELES_DVS596'
p1401
g19
sS'SALT_DVS556'
p1402
g19
sS'GROWN_UPS_DVS182'
p1403
g9
sS'500DAYSOFSUMMER_DVS85'
p1404
g14
sS'500DAYSOFSUMMER_DVS84'
p1405
g16
sS'WE_BOUGHT_A_ZOO_DVS37'
p1406
g41
sS'TOOTH_FAIRY_DVS623'
p1407
g2
sS'WE_BOUGHT_A_ZOO_DVS31'
p1408
g19
sS'TITANIC_2_DVS749'
p1409
g9
sS'HANSEL_GRETEL_WITCH_HUNTERS_DVS349'
p1410
g2
sS'THE_ART_OF_GETTING_BY_DVS185'
p1411
g19
sS'TITANIC_2_DVS743'
p1412
g19
sS'MORNING_GLORY_DVS378'
p1413
g9
sS'TITANIC_2_DVS745'
p1414
g2
sS'MR_POPPERS_PENGUINS_DVS642'
p1415
g53
sS'CHRONICLE_DVS66'
p1416
g7
sS'CHASING_MAVERICKS_DVS1005'
p1417
g2
sS'CHRONICLE_DVS65'
p1418
g7
sS'COLOMBIANA_DVS995'
p1419
g53
sS'HUGO_DVS236'
p1420
g2
sS'ZOOKEEPER_DVS386'
p1421
g9
sS'21_JUMP_STREET_DVS427'
p1422
g9
sS'YOUNG_ADULT_DVS255'
p1423
g16
sS'A_GOOD_DAY_TO_DIE_HARD_DVS467'
p1424
g2
sS'THOR_DVS602'
p1425
g19
sS'MR_POPPERS_PENGUINS_DVS519'
p1426
g2
sS'40_YEAR_OLD_VIRGIN_DVS57'
p1427
g14
sS'ROBIN_HOOD_DVS507'
p1428
g27
sS'NO_STRINGS_ATTACHED_DVS379'
p1429
g19
sS'21_JUMP_STREET_DVS681'
p1430
g41
sS'LIFE_OF_PI_DVS574'
p1431
g27
sS'JACK_AND_JILL_DVS395'
p1432
g19
sS'GHOST_RIDER_SPIRIT_OF_VENGEANCE_DVS438'
p1433
g9
sS'GHOST_RIDER_SPIRIT_OF_VENGEANCE_DVS439'
p1434
g66
sS'SORCERERS_APPRENTICE_DVS111'
p1435
g19
sS'FLIGHT_DVS145'
p1436
g9
sS'LIFE_OF_PI_DVS975'
p1437
g7
sS'A_GOOD_DAY_TO_DIE_HARD_DVS866'
p1438
g9
sS'ZOMBIELAND_DVS368'
p1439
g9
sS'THOR_DVS237'
p1440
g2
sS'ITS_COMPLICATED_DVS329'
p1441
g16
sS'IRON_MAN_2_DVS570'
p1442
g9
sS'DISTRICT_9_DVS267'
p1443
g266
sS'ZOMBIELAND_DVS366'
p1444
g9
sS'CAPTAIN_AMERICA_DVS46'
p1445
g19
sS'ABRAHAM_LINCOLN_VAMPIRE_HUNTER_DVS584'
p1446
g66
sS'LIFE_OF_PI_DVS482'
p1447
g35
sS'ABRAHAM_LINCOLN_VAMPIRE_HUNTER_DVS218'
p1448
g16
sS'PARENTAL_GUIDANCE_DVS72'
p1449
g9
sS'LIFE_OF_PI_DVS220'
p1450
g27
sS'THE_BIG_YEAR_DVS35'
p1451
g53
sS'30_MINUTES_OR_LESS_DVS210'
p1452
g9
sS'WHATS_YOUR_NUMBER_DVS654'
p1453
g19
sS'JUST_GO_WITH_IT_DVS280'
p1454
g2
sS'JUST_GO_WITH_IT_DVS287'
p1455
g41
sS'LIFE_OF_PI_DVS374'
p1456
g7
sS'THOR_DVS428'
p1457
g16
sS'THOR_DVS425'
p1458
g16
sS'ITS_COMPLICATED_DVS374'
p1459
g41
sS'CHASING_MAVERICKS_DVS492'
p1460
g266
sS'KARATE_KID_DVS186'
p1461
g16
sS'CHASING_MAVERICKS_DVS494'
p1462
g19
sS'LIFE_OF_PI_DVS396'
p1463
g66
sS'A_THOUSAND_WORDS_DVS188'
p1464
g14
sS'IDES_OF_MARCH_DVS164'
p1465
g19
sS'CHARLIE_ST_CLOUD_DVS278'
p1466
g9
sS'LIFE_OF_PI_DVS153'
p1467
g19
sS'KARATE_KID_DVS878'
p1468
g2
sS'BIG_MOMMAS_LIKE_FATHER_LIKE_SON_DVS215'
p1469
g9
sS'BIG_MOMMAS_LIKE_FATHER_LIKE_SON_DVS219'
p1470
g2
sS'THE_ROOMMATE_DVS295'
p1471
g9
sS'KARATE_KID_DVS1101'
p1472
g9
sS'KATY_PERRY_PART_OF_ME_DVS160'
p1473
g41
sS'ABRAHAM_LINCOLN_VAMPIRE_HUNTER_DVS565'
p1474
g380
sS'FLIGHT_DVS398'
p1475
g2
sS'KATY_PERRY_PART_OF_ME_DVS168'
p1476
g41
sS'XMEN_FIRST_CLASS_DVS604'
p1477
g9
sS'NO_STRINGS_ATTACHED_DVS553'
p1478
g9
sS'KARATE_KID_DVS474'
p1479
g19
sS'TITANIC_1_DVS92'
p1480
g2
sS'KARATE_KID_DVS472'
p1481
g66
sS'WE_BOUGHT_A_ZOO_DVS454'
p1482
g19
sS'ITS_COMPLICATED_DVS134'
p1483
g19
sS'BURLESQUE_DVS260'
p1484
g9
sS'BURLESQUE_DVS127'
p1485
g2
sS'TITANIC_1_DVS197'
p1486
g9
sS'TITANIC_1_DVS193'
p1487
g53
sS'XMEN_FIRST_CLASS_DVS849'
p1488
g7
sS'A_THOUSAND_WORDS_DVS362'
p1489
g9
sS'TITANIC_1_DVS199'
p1490
g9
sS'COLOMBIANA_DVS513'
p1491
g2
sS'THE_ADVENTURES_OF_TINTIN_DVS368'
p1492
g53
sS'UGLY_TRUTH_DVS477'
p1493
g53
sS'SUPER_8_DVS555'
p1494
g19
sS'SUPER_8_DVS556'
p1495
g9
sS'THIS_MEANS_WAR_DVS511'
p1496
g9
sS'SOUL_SURFER_DVS181'
p1497
g9
sS'KARATE_KID_DVS509'
p1498
g2
sS'XMEN_FIRST_CLASS_DVS920'
p1499
g19
sS'BIG_MOMMAS_LIKE_FATHER_LIKE_SON_DVS528'
p1500
g9
sS'BATTLE_LOS_ANGELES_DVS609'
p1501
g9
sS'GREEN_ZONE_DVS125'
p1502
g9
sS'HOW_DO_YOU_KNOW_DVS680'
p1503
g19
sS'30_MINUTES_OR_LESS_DVS157'
p1504
g9
sS'JULIE_AND_JULIA_DVS219'
p1505
g9
sS'30_MINUTES_OR_LESS_DVS152'
p1506
g7
sS'WE_BOUGHT_A_ZOO_DVS806'
p1507
g19
sS'EASY_A_DVS154'
p1508
g16
sS'IRON_MAN_2_DVS318'
p1509
g9
sS'THE_ADVENTURES_OF_TINTIN_DVS188'
p1510
g2
sS'WE_BOUGHT_A_ZOO_DVS147'
p1511
g7
sS'DEAR_JOHN_DVS159'
p1512
g7
sS'PARENTAL_GUIDANCE_DVS426'
p1513
g19
sS'500DAYSOFSUMMER_DVS396'
p1514
g14
sS'500DAYSOFSUMMER_DVS397'
p1515
g14
sS'WE_BOUGHT_A_ZOO_DVS148'
p1516
g7
sS'NANNY_MCPHEE_RETURNS_DVS205'
p1517
g35
sS'BIG_MOMMAS_LIKE_FATHER_LIKE_SON_DVS149'
p1518
g7
sS'MORNING_GLORY_DVS388'
p1519
g27
sS'HOW_DO_YOU_KNOW_DVS358'
p1520
g53
sS'JULIE_AND_JULIA_DVS450'
p1521
g19
sS'HOW_DO_YOU_KNOW_DVS353'
p1522
g19
sS'THE_GIRL_WITH_THE_DRAGON_TATTOO_DVS139'
p1523
g7
sS'THE_BIG_YEAR_DVS525'
p1524
g9
sS'SPARKLE_2012_DVS480'
p1525
g66
sS'SUPER_8_DVS601'
p1526
g9
sS'PUBLIC_ENEMIES_DVS261'
p1527
g9
sS'THE_GIRL_WITH_THE_DRAGON_TATTOO_DVS84'
p1528
g9
sS'THE_VOW_DVS283'
p1529
g27
sS'40_YEAR_OLD_VIRGIN_DVS158'
p1530
g550
sS'THE_GUILT_TRIP_DVS109'
p1531
g19
sS'DEAR_JOHN_DVS338'
p1532
g41
sS'THE_BOUNTY_HUNTER_DVS126'
p1533
g9
sS'SUPER_8_DVS401'
p1534
g9
sS'THE_VOW_DVS268'
p1535
g19
sS'THE_BIG_YEAR_DVS412'
p1536
g27
sS'IN_TIME_DVS249'
p1537
g2
sS'SNOW_FLOWER_FD_DVS1410'
p1538
g9
sS'DEAR_JOHN_DVS448'
p1539
g19
sS'INSIDE_MAN_DVS175'
p1540
g266
sS'BIG_MOMMAS_LIKE_FATHER_LIKE_SON_DVS46'
p1541
g27
sS'THE_DESCENDANTS_DVS383'
p1542
g9
sS'BURLESQUE_DVS677'
p1543
g19
sS'THE_GIRL_WITH_THE_DRAGON_TATTOO_DVS714'
p1544
g27
sS'SALT_DVS546'
p1545
g19
sS'500DAYSOFSUMMER_DVS98'
p1546
g14
sS'500DAYSOFSUMMER_DVS93'
p1547
g19
sS'THE_DESCENDANTS_DVS257'
p1548
g27
sS'MR_POPPERS_PENGUINS_DVS186'
p1549
g9
sS'MR_POPPERS_PENGUINS_DVS187'
p1550
g27
sS'A_GOOD_DAY_TO_DIE_HARD_DVS678'
p1551
g14
sS'MR_POPPERS_PENGUINS_DVS211'
p1552
g9
sS'CHRONICLE_DVS410'
p1553
g9
sS'UGLY_TRUTH_DVS557'
p1554
g7
sS'TOOTH_FAIRY_DVS706'
p1555
g27
sS'SALT_DVS430'
p1556
g53
sS'FRIENDS_WITH_BENEFITS_DVS43'
p1557
g41
sS'SALT_DVS434'
p1558
g9
sS'JUST_GO_WITH_IT_DVS113'
p1559
g9
sS'UGLY_TRUTH_DVS553'
p1560
g41
sS'BURLESQUE_DVS77'
p1561
g27
sS'MORNING_GLORY_DVS467'
p1562
g9
sS'ZOMBIELAND_DVS572'
p1563
g9
sS'HUGO_DVS224'
p1564
g7
sS'HUGO_DVS229'
p1565
g266
sS'TITANIC_2_DVS176'
p1566
g35
sS'HANSEL_GRETEL_WITCH_HUNTERS_DVS596'
p1567
g9
sS'FRIENDS_WITH_BENEFITS_DVS200'
p1568
g9
sS'THE_CALL_DVS203'
p1569
g16
sS'21_JUMP_STREET_DVS437'
p1570
g53
sS'THE_BOUNTY_HUNTER_DVS302'
p1571
g19
sS'MR_POPPERS_PENGUINS_DVS529'
p1572
g2
sS'SANCTUM_DVS113'
p1573
g2
sS'LIFE_OF_PI_DVS569'
p1574
g2
sS'MORNING_GLORY_DVS207'
p1575
g9
sS'ROBIN_HOOD_DVS511'
p1576
g9
sS'CAPTAIN_AMERICA_DVS282'
p1577
g9
sS'THE_CALL_DVS110'
p1578
g266
sS'CAPTAIN_AMERICA_DVS289'
p1579
g233
sS'THE_GIRL_WITH_THE_DRAGON_TATTOO_DVS1190'
p1580
g9
sS'GHOST_RIDER_SPIRIT_OF_VENGEANCE_DVS427'
p1581
g9
sS'CAPTAIN_AMERICA_DVS440'
p1582
g9
sS'CAPTAIN_AMERICA_DVS443'
p1583
g19
sS'CAPTAIN_AMERICA_DVS444'
p1584
g9
sS'CAPTAIN_AMERICA_DVS446'
p1585
g9
sS'ZOMBIELAND_DVS371'
p1586
g7
sS'DISTRICT_9_DVS272'
p1587
g9
sS'WE_BOUGHT_A_ZOO_DVS816'
p1588
g9
sS'ITS_COMPLICATED_DVS232'
p1589
g27
sS'ROBIN_HOOD_DVS56'
p1590
g266
sS'21_JUMP_STREET_DVS218'
p1591
g2
sS'CAPTAIN_AMERICA_DVS35'
p1592
g2
sS'CAPTAIN_AMERICA_DVS37'
p1593
g2
sS'CAPTAIN_AMERICA_DVS668'
p1594
g9
sS'YOUNG_ADULT_DVS119'
p1595
g16
sS'SANCTUM_DVS265'
p1596
g35
sS'YOUNG_ADULT_DVS111'
p1597
g19
sS'TITANIC_1_DVS261'
p1598
g53
sS'YOUNG_ADULT_DVS117'
p1599
g7
sS'SNOW_FLOWER_FD_DVS235'
p1600
g2
sS'LIFE_OF_PI_DVS700'
p1601
g35
sS'LIFE_OF_PI_DVS364'
p1602
g35
sS'LIFE_OF_PI_DVS811'
p1603
g19
sS'LIFE_OF_PI_DVS360'
p1604
g35
sS'ZOMBIELAND_DVS713'
p1605
g2
sS'TRUE_GRIT_DVS308'
p1606
g53
sS'KARATE_KID_DVS1076'
p1607
g9
sS'WHATS_YOUR_NUMBER_DVS463'
p1608
g35
sS'WHATS_YOUR_NUMBER_DVS462'
p1609
g66
sS'TRUE_GRIT_DVS521'
p1610
g16
sS'GHOST_RIDER_SPIRIT_OF_VENGEANCE_DVS549'
p1611
g9
sS'COLOMBIANA_DVS468'
p1612
g19
sS'LIFE_OF_PI_DVS144'
p1613
g266
sS'KARATE_KID_DVS866'
p1614
g27
sS'JACK_AND_JILL_DVS102'
p1615
g35
sS'A_THOUSAND_WORDS_DVS183'
p1616
g9
sS'THE_BIG_YEAR_DVS69'
p1617
g9
sS'FLIGHT_DVS386'
p1618
g266
sS'KATY_PERRY_PART_OF_ME_DVS179'
p1619
g9
sS'WE_BOUGHT_A_ZOO_DVS335'
p1620
g9
sS'BURLESQUE_DVS276'
p1621
g2
sS'TITANIC_1_DVS187'
p1622
g7
sS'TOOTH_FAIRY_DVS833'
p1623
g41
sS'KARATE_KID_DVS1002'
p1624
g27
sS'THE_ADVENTURES_OF_TINTIN_DVS420'
p1625
g7
sS'KARATE_KID_DVS1009'
p1626
g27
sS'NANNY_MCPHEE_RETURNS_DVS477'
p1627
g9
sS'NANNY_MCPHEE_RETURNS_DVS473'
p1628
g9
sS'21_JUMP_STREET_DVS473'
p1629
g66
sS'WE_BOUGHT_A_ZOO_DVS532'
p1630
g19
sS'THIS_MEANS_WAR_DVS183'
p1631
g19
sS'BATTLE_LOS_ANGELES_DVS632'
p1632
g1323
sS'CHASING_MAVERICKS_DVS652'
p1633
g35
sS'A_THOUSAND_WORDS_DVS225'
p1634
g16
sS'COLOMBIANA_DVS670'
p1635
g35
sS'BLINDDATING_DVS103'
p1636
g2
sS'HOW_DO_YOU_KNOW_DVS124'
p1637
g27
sS'UGLY_TRUTH_DVS510'
p1638
g7
sS'30_MINUTES_OR_LESS_DVS161'
p1639
g9
sS'RUBY_SPARKS_DVS327'
p1640
g2
sS'WE_BOUGHT_A_ZOO_DVS157'
p1641
g7
sS'THIS_MEANS_WAR_DVS503'
p1642
g41
sS'500DAYSOFSUMMER_DVS380'
p1643
g41
sS'WE_BOUGHT_A_ZOO_DVS158'
p1644
g19
sS'TITANIC_1_DVS504'
p1645
g2
sS'BIG_MOMMAS_LIKE_FATHER_LIKE_SON_DVS154'
p1646
g19
sS'DEAR_JOHN_DVS143'
p1647
g41
sS'PUBLIC_ENEMIES_DVS308'
p1648
g7
sS'JULIE_AND_JULIA_DVS334'
p1649
g19
sS'THE_ADVENTURES_OF_TINTIN_DVS645'
p1650
g2
sS'TRUE_GRIT_DVS421'
p1651
g27
sS'SUPER_8_DVS615'
p1652
g19
sS'MR_POPPERS_PENGUINS_DVS174'
p1653
g9
sS'SPARKLE_2012_DVS496'
p1654
g2
sS'SUPER_8_DVS619'
p1655
g41
sS'SUPER_8_DVS618'
p1656
g41
sS'40_YEAR_OLD_VIRGIN_DVS143'
p1657
g550
sS'THE_VOW_DVS294'
p1658
g19
sS'COLOMBIANA_DVS708'
p1659
g9
sS'GROWN_UPS_DVS174'
p1660
g9
sS'FLIGHT_DVS613'
p1661
g53
sS'MORNING_GLORY_DVS175'
p1662
g7
sS'TITANIC_1_DVS169'
p1663
g9
sS'THE_GIRL_WITH_THE_DRAGON_TATTOO_DVS652'
p1664
g19
sS'BIG_MOMMAS_LIKE_FATHER_LIKE_SON_DVS78'
p1665
g19
sS'THE_GIRL_WITH_THE_DRAGON_TATTOO_DVS870'
p1666
g19
sS'DEAR_JOHN_DVS456'
p1667
g9
sS'DEAR_JOHN_DVS213'
p1668
g41
sS'COLOMBIANA_DVS816'
p1669
g46
sS'KARATE_KID_DVS1530'
p1670
g9
sS'CAPTAIN_AMERICA_DVS635'
p1671
g2
sS'HUGO_DVS223'
p1672
g19
sS'CINDERELLA_MAN_DVS193'
p1673
g16
sS'PARENTAL_GUIDANCE_DVS402'
p1674
g19
sS'DINNER_FOR_SCHMUCKS_DVS205'
p1675
g9
sS'MR_POPPERS_PENGUINS_DVS195'
p1676
g16
sS'MR_POPPERS_PENGUINS_DVS192'
p1677
g9
sS'THE_BIG_YEAR_DVS269'
p1678
g9
sS'HUGO_DVS780'
p1679
g41
sS'GHOST_RIDER_SPIRIT_OF_VENGEANCE_DVS602'
p1680
g19
sS'MR_POPPERS_PENGUINS_DVS201'
p1681
g27
sS'THE_DESCENDANTS_DVS533'
p1682
g19
sS'THINK_LIKE_A_MAN_DVS439'
p1683
g19
sS'THINK_LIKE_A_MAN_DVS432'
p1684
g19
sS'TITANIC_2_DVS764'
p1685
g9
sS'INSIDE_MAN_DVS387'
p1686
g2
sS'JUST_GO_WITH_IT_DVS108'
p1687
g9
sS'JUST_GO_WITH_IT_DVS104'
p1688
g9
sS'THE_ART_OF_GETTING_BY_DVS414'
p1689
g19
sS'30_MINUTES_OR_LESS_DVS69'
p1690
g35
sS'LARRY_CROWNE_DVS78'
p1691
g7
sS'HUGO_DVS680'
p1692
g2
sS'DISTRICT_9_DVS447'
p1693
g19
sS'SALT_DVS18'
p1694
g16
sS'HUGO_DVS258'
p1695
g9
sS'FRIENDS_WITH_BENEFITS_DVS278'
p1696
g2
sS'TITANIC_2_DVS144'
p1697
g7
sS'TOOTH_FAIRY_DVS517'
p1698
g9
sS'TITANIC_2_DVS142'
p1699
g7
sS'FRIENDS_WITH_BENEFITS_DVS276'
p1700
g35
sS'ITS_COMPLICATED_DVS36'
p1701
g19
sS'ZOOKEEPER_DVS76'
p1702
g66
sS'IN_TIME_DVS188'
p1703
g9
sS'PARENTAL_GUIDANCE_DVS302'
p1704
g53
sS'ZOOKEEPER_DVS296'
p1705
g27
sS'CAPTAIN_AMERICA_DVS380'
p1706
g9
sS'LIFE_OF_PI_DVS550'
p1707
g2
sS'SORCERERS_APPRENTICE_DVS460'
p1708
g2
sS'TOOTH_FAIRY_DVS94'
p1709
g19
sS'30_MINUTES_OR_LESS_DVS266'
p1710
g16
sS'THE_GIRL_WITH_THE_DRAGON_TATTOO_DVS1187'
p1711
g9
sS'ROBIN_HOOD_DVS185'
p1712
g9
sS'THE_GIRL_WITH_THE_DRAGON_TATTOO_DVS1185'
p1713
g9
sS'HOW_DO_YOU_KNOW_DVS52'
p1714
g27
sS'A_GOOD_DAY_TO_DIE_HARD_DVS803'
p1715
g9
sS'PARENTAL_GUIDANCE_DVS239'
p1716
g9
sS'THE_DESCENDANTS_DVS721'
p1717
g16
sS'HOW_DO_YOU_KNOW_DVS55'
p1718
g16
sS'LIFE_OF_PI_DVS950'
p1719
g19
sS'ITS_COMPLICATED_DVS347'
p1720
g9
sS'BRUNO_DVS52'
p1721
g53
sS'KARATE_KID_DVS211'
p1722
g9
sS'KARATE_KID_DVS218'
p1723
g9
sS'IDES_OF_MARCH_DVS365'
p1724
g19
sS'GHOST_RIDER_SPIRIT_OF_VENGEANCE_DVS415'
p1725
g9
sS'COLOMBIANA_DVS386'
p1726
g2
sS'ROBIN_HOOD_DVS365'
p1727
g9
sS'COLOMBIANA_DVS382'
p1728
g217
sS'SANCTUM_DVS251'
p1729
g2
sS'SANCTUM_DVS255'
p1730
g2
sS'CAPTAIN_AMERICA_DVS498'
p1731
g2
sS'XMEN_FIRST_CLASS_DVS639'
p1732
g19
sS'GHOST_RIDER_SPIRIT_OF_VENGEANCE_DVS564'
p1733
g66
sS'THE_BIG_YEAR_DVS293'
p1734
g27
sS'THE_BOUNTY_HUNTER_DVS510'
p1735
g9
sS'THE_BOUNTY_HUNTER_DVS511'
p1736
g2
sS'WHATS_YOUR_NUMBER_DVS679'
p1737
g9
sS'BATTLE_LOS_ANGELES_DVS285'
p1738
g27
sS'PERCY_JACKSON_LIGHTENING_THIEF_DVS154'
p1739
g19
sS'SANCTUM_DVS387'
p1740
g41
sS'SNOW_FLOWER_FD_DVS397'
p1741
g19
sS'CHARLIE_ST_CLOUD_DVS211'
p1742
g9
sS'BURLESQUE_DVS247'
p1743
g9
sS'BURLESQUE_DVS245'
p1744
g16
sS'A_THOUSAND_WORDS_DVS165'
p1745
g14
sS'GHOST_RIDER_SPIRIT_OF_VENGEANCE_DVS495'
p1746
g19
sS'COLOMBIANA_DVS497'
p1747
g9
sS'CHASING_MAVERICKS_DVS261'
p1748
g7
sS'WHATS_YOUR_NUMBER_DVS453'
p1749
g2
sS'WHATS_YOUR_NUMBER_DVS450'
p1750
g2
sS'BIG_MOMMAS_LIKE_FATHER_LIKE_SON_DVS237'
p1751
g7
sS'CAPTAIN_AMERICA_DVS126'
p1752
g233
sS'CAPTAIN_AMERICA_DVS125'
p1753
g9
sS'FLIGHT_DVS371'
p1754
g2
sS'JACK_AND_JILL_DVS118'
p1755
g7
sS'BIG_MOMMAS_LIKE_FATHER_LIKE_SON_DVS303'
p1756
g66
sS'BIG_MOMMAS_LIKE_FATHER_LIKE_SON_DVS307'
p1757
g66
sS'WE_BOUGHT_A_ZOO_DVS301'
p1758
g9
sS'COLOMBIANA_DVS697'
p1759
g9
sS'THE_ROOMMATE_DVS324'
p1760
g19
sS'XMEN_FIRST_CLASS_DVS822'
p1761
g27
sS'PROMETHEUS_DVS1076'
p1762
g2
sS'THE_SITTER_DVS131'
p1763
g16
sS'ABRAHAM_LINCOLN_VAMPIRE_HUNTER_DVS388'
p1764
g66
sS'UGLY_TRUTH_DVS322'
p1765
g19
sS'WE_BOUGHT_A_ZOO_DVS786'
p1766
g19
sS'CHASING_MAVERICKS_DVS349'
p1767
g35
sS'CHASING_MAVERICKS_DVS347'
p1768
g53
sS'A_THOUSAND_WORDS_DVS236'
p1769
g9
sS'BIG_MOMMAS_LIKE_FATHER_LIKE_SON_DVS493'
p1770
g41
sS'COLOMBIANA_DVS663'
p1771
g19
sS'UGLY_TRUTH_DVS529'
p1772
g2
sS'BIG_MOMMAS_LIKE_FATHER_LIKE_SON_DVS499'
p1773
g19
sS'A_THOUSAND_WORDS_DVS238'
p1774
g9
sS'THIS_MEANS_WAR_DVS150'
p1775
g53
sS'EASY_A_DVS175'
p1776
g41
sS'EASY_A_DVS174'
p1777
g41
sS'DEATH_AT_A_FUNERAL_DVS285'
p1778
g41
sS'NANNY_MCPHEE_RETURNS_DVS215'
p1779
g9
sS'EASY_A_DVS178'
p1780
g41
sS'KARATE_KID_DVS1386'
p1781
g7
sS'RUBY_SPARKS_DVS245'
p1782
g7
sS'PUBLIC_ENEMIES_DVS466'
p1783
g266
sS'KARATE_KID_DVS1389'
p1784
g9
sS'GHOST_RIDER_SPIRIT_OF_VENGEANCE_DVS62'
p1785
g19
sS'JULIE_AND_JULIA_DVS123'
p1786
g16
sS'PROMETHEUS_DVS838'
p1787
g19
sS'MORNING_GLORY_DVS166'
p1788
g27
sS'MORNING_GLORY_DVS163'
p1789
g9
sS'THE_ADVENTURES_OF_TINTIN_DVS656'
p1790
g27
sS'THE_GUILT_TRIP_DVS279'
p1791
g2
sS'SPARKLE_2012_DVS314'
p1792
g19
sS'GREEN_ZONE_DVS96'
p1793
g19
sS'SPARKLE_2012_DVS310'
p1794
g41
sS'WE_BOUGHT_A_ZOO_DVS824'
p1795
g19
sS'40_YEAR_OLD_VIRGIN_DVS177'
p1796
g27
sS'COLOMBIANA_DVS165'
p1797
g9
sS'TITANIC_1_DVS407'
p1798
g266
sS'TITANIC_1_DVS404'
p1799
g66
sS'TITANIC_1_DVS409'
p1800
g266
sS'LIFE_OF_PI_DVS1005'
p1801
g2
sS'LIFE_OF_PI_DVS1007'
p1802
g53
sS'COLOMBIANA_DVS718'
p1803
g19
sS'A_THOUSAND_WORDS_DVS438'
p1804
g41
sS'COLOMBIANA_DVS710'
p1805
g2
sS'JULIE_AND_JULIA_DVS475'
p1806
g19
sS'KARATE_KID_DVS1633'
p1807
g53
sS'LIFE_OF_PI_DVS816'
p1808
g35
sS'MORNING_GLORY_DVS298'
p1809
g19
sS'BIG_MOMMAS_LIKE_FATHER_LIKE_SON_DVS69'
p1810
g1323
sS'LAND_OF_THE_LOST_DVS128'
p1811
g27
sS'GHOST_RIDER_SPIRIT_OF_VENGEANCE_DVS82'
p1812
g9
sS'THE_BIG_YEAR_DVS387'
p1813
g53
sS'GHOST_RIDER_SPIRIT_OF_VENGEANCE_DVS81'
p1814
g9
sS'CHASING_MAVERICKS_DVS46'
p1815
g19
sS'DEAR_JOHN_DVS598'
p1816
g19
sS'DEAR_JOHN_DVS265'
p1817
g19
sS'DEAR_JOHN_DVS593'
p1818
g9
sS'CHASING_MAVERICKS_DVS49'
p1819
g9
sS'TITANIC_2_DVS605'
p1820
g9
sS'DINNER_FOR_SCHMUCKS_DVS212'
p1821
g19
sS'HUGO_DVS792'
p1822
g16
sS'JUST_GO_WITH_IT_DVS131'
p1823
g35
sS'IN_TIME_DVS467'
p1824
g9
sS'GET_HIM_TO_THE_GREEK_DVS17'
p1825
g16
sS'THE_DESCENDANTS_DVS523'
p1826
g41
sS'SPARKLE_2012_DVS171'
p1827
g7
sS'SPARKLE_2012_DVS170'
p1828
g7
sS'INSIDE_MAN_DVS398'
p1829
g19
sS'THE_DESCENDANTS_DVS634'
p1830
g2
sS'COLOMBIANA_DVS1050'
p1831
g27
sS'CHARLIE_ST_CLOUD_DVS96'
p1832
g16
sS'THE_ART_OF_GETTING_BY_DVS131'
p1833
g19
sS'A_GOOD_DAY_TO_DIE_HARD_DVS727'
p1834
g9
sS'CHARLIE_ST_CLOUD_DVS75'
p1835
g2
sS'MR_POPPERS_PENGUINS_DVS308'
p1836
g9
sS'CHARLIE_ST_CLOUD_DVS185'
p1837
g2
sS'ZOOKEEPER_DVS351'
p1838
g16
sS'PARENTAL_GUIDANCE_DVS229'
p1839
g9
sS'MR_POPPERS_PENGUINS_DVS236'
p1840
g7
sS'IN_TIME_DVS190'
p1841
g7
sS'MR_POPPERS_PENGUINS_DVS546'
p1842
g19
sS'21_JUMP_STREET_DVS582'
p1843
g9
sS'PUBLIC_ENEMIES_DVS85'
p1844
g9
sS'ZOMBIELAND_DVS750'
p1845
g19
sS'21_JUMP_STREET_DVS345'
p1846
g9
sS'21_JUMP_STREET_DVS348'
p1847
g7
sS'30_MINUTES_OR_LESS_DVS340'
p1848
g19
sS'THE_CALL_DVS172'
p1849
g16
sS'THINK_LIKE_A_MAN_DVS369'
p1850
g9
sS'CAPTAIN_AMERICA_DVS265'
p1851
g9
sS'ROBIN_HOOD_DVS195'
p1852
g7
sS'YOUNG_ADULT_DVS229'
p1853
g41
sS'CINDERELLA_MAN_DVS225'
p1854
g9
sS'HANSEL_GRETEL_WITCH_HUNTERS_DVS559'
p1855
g9
sS'SALT_DVS25'
p1856
g41
sS'HANSEL_GRETEL_WITCH_HUNTERS_DVS554'
p1857
g9
sS'ITS_COMPLICATED_DVS219'
p1858
g2
sS'IRON_MAN_2_DVS237'
p1859
g9
sS'SANCTUM_DVS483'
p1860
g19
sS'ITS_COMPLICATED_DVS210'
p1861
g41
sS'KARATE_KID_DVS208'
p1862
g9
sS'IDES_OF_MARCH_DVS373'
p1863
g7
sS'BRUNO_DVS47'
p1864
g9
sS'SANCTUM_DVS249'
p1865
g35
sS'ZOOKEEPER_DVS132'
p1866
g53
sS'HUGO_DVS803'
p1867
g9
sS'HUGO_DVS805'
p1868
g2
sS'GHOST_RIDER_SPIRIT_OF_VENGEANCE_DVS577'
p1869
g66
sS'PERCY_JACKSON_LIGHTENING_THIEF_DVS148'
p1870
g7
sS'LIFE_OF_PI_DVS831'
p1871
g35
sS'HUGO_DVS676'
p1872
g9
sS'LIFE_OF_PI_DVS835'
p1873
g35
sS'ZOMBIELAND_DVS732'
p1874
g2
sS'CAPTAIN_AMERICA_DVS123'
p1875
g233
sS'WE_BOUGHT_A_ZOO_DVS310'
p1876
g2
sS'WHATS_YOUR_NUMBER_DVS683'
p1877
g7
sS'DISTRICT_9_DVS831'
p1878
g2
sS'EASY_A_DVS306'
p1879
g117
sS'ABRAHAM_LINCOLN_VAMPIRE_HUNTER_DVS627'
p1880
g9
sS'FLIGHT_DVS94'
p1881
g2
sS'CAPTAIN_AMERICA_DVS134'
p1882
g53
sS'TITANIC_2_DVS721'
p1883
g9
sS'CAPTAIN_AMERICA_DVS647'
p1884
g7
sS'FLIGHT_DVS363'
p1885
g9
sS'CAPTAIN_AMERICA_DVS644'
p1886
g9
sS'DEAR_JOHN_DVS27'
p1887
g35
sS'PARENTAL_GUIDANCE_DVS29'
p1888
g41
sS'CAPTAIN_AMERICA_DVS138'
p1889
g41
sS'TITANIC_1_DVS85'
p1890
g9
sS'THE_WATCH_DVS225'
p1891
g7
sS'THOR_DVS502'
p1892
g9
sS'IRON_MAN_2_DVS656'
p1893
g9
sS'BATTLE_LOS_ANGELES_DVS384'
p1894
g9
sS'KATY_PERRY_PART_OF_ME_DVS117'
p1895
g27
sS'THOR_DVS504'
p1896
g9
sS'THE_ROOMMATE_DVS316'
p1897
g19
sS'GREEN_ZONE_DVS177'
p1898
g19
sS'THE_ROOMMATE_DVS312'
p1899
g9
sS'SUPER_8_DVS521'
p1900
g9
sS'SUPER_8_DVS524'
p1901
g9
sS'LIFE_OF_PI_DVS706'
p1902
g2
sS'UGLY_TRUTH_DVS339'
p1903
g19
sS'DINNER_FOR_SCHMUCKS_DVS176'
p1904
g117
sS'A_THOUSAND_WORDS_DVS339'
p1905
g66
sS'THE_WATCH_DVS359'
p1906
g9
sS'BIG_MOMMAS_LIKE_FATHER_LIKE_SON_DVS554'
p1907
g41
sS'BIG_MOMMAS_LIKE_FATHER_LIKE_SON_DVS557'
p1908
g41
sS'SANCTUM_DVS261'
p1909
g35
sS'CAPTAIN_AMERICA_DVS664'
p1910
g19
sS'XMEN_FIRST_CLASS_DVS1335'
p1911
g2
sS'THIS_MEANS_WAR_DVS367'
p1912
g16
sS'CAPTAIN_AMERICA_DVS667'
p1913
g9
sS'NANNY_MCPHEE_RETURNS_DVS418'
p1914
g19
sS'TITANIC_1_DVS235'
p1915
g9
sS'TITANIC_1_DVS230'
p1916
g2
sS'A_THOUSAND_WORDS_DVS201'
p1917
g2
sS'SUPER_8_DVS294'
p1918
g9
sS'30_MINUTES_OR_LESS_DVS347'
p1919
g105
sS'30_MINUTES_OR_LESS_DVS344'
p1920
g266
sS'THE_BOUNTY_HUNTER_DVS73'
p1921
g41
sS'30_MINUTES_OR_LESS_DVS181'
p1922
g16
sS'JUST_GO_WITH_IT_DVS28'
p1923
g16
sS'NANNY_MCPHEE_RETURNS_DVS327'
p1924
g266
sS'UGLY_TRUTH_DVS535'
p1925
g9
sS'HUGO_DVS23'
p1926
g9
sS'UGLY_TRUTH_DVS539'
p1927
g66
sS'JULIE_AND_JULIA_DVS228'
p1928
g41
sS'IRON_MAN_2_DVS325'
p1929
g9
sS'PROMETHEUS_DVS730'
p1930
g9
sS'IRON_MAN_2_DVS434'
p1931
g27
sS'NANNY_MCPHEE_RETURNS_DVS80'
p1932
g9
sS'TITANIC_2_DVS706'
p1933
g19
sS'PUBLIC_ENEMIES_DVS473'
p1934
g9
sS'KNOCKED_UP_DVS151'
p1935
g16
sS'XMEN_FIRST_CLASS_DVS1029'
p1936
g16
sS'KNOCKED_UP_DVS154'
p1937
g19
sS'THOR_DVS29'
p1938
g19
sS'KNOCKED_UP_DVS158'
p1939
g9
s.